ARM GAS  C:\Users\41786\AppData\Local\Temp\ccWekbSf.s 			page 1


   1              		.cpu cortex-m4
   2              		.eabi_attribute 27, 1
   3              		.eabi_attribute 28, 1
   4              		.eabi_attribute 20, 1
   5              		.eabi_attribute 21, 1
   6              		.eabi_attribute 23, 3
   7              		.eabi_attribute 24, 1
   8              		.eabi_attribute 25, 1
   9              		.eabi_attribute 26, 1
  10              		.eabi_attribute 30, 2
  11              		.eabi_attribute 34, 1
  12              		.eabi_attribute 18, 4
  13              		.file	"animations.c"
  14              		.text
  15              	.Ltext0:
  16              		.cfi_sections	.debug_frame
  17              		.section	.text.reset_leds,"ax",%progbits
  18              		.align	1
  19              		.p2align 4,,15
  20              		.global	reset_leds
  21              		.syntax unified
  22              		.thumb
  23              		.thumb_func
  24              		.fpu fpv4-sp-d16
  25              		.type	reset_leds, %function
  26              	reset_leds:
  27              	.LFB257:
  28              		.file 1 "animations.c"
  29              		.loc 1 22 0
  30              		.cfi_startproc
  31              		@ args = 0, pretend = 0, frame = 8
  32              		@ frame_needed = 0, uses_anonymous_args = 0
  33 0000 10B5     		push	{r4, lr}
  34              		.cfi_def_cfa_offset 8
  35              		.cfi_offset 4, -8
  36              		.cfi_offset 14, -4
  37 0002 114C     		ldr	r4, .L7
  38 0004 82B0     		sub	sp, sp, #8
  39              		.cfi_def_cfa_offset 16
  40              		.loc 1 23 0
  41 0006 0021     		movs	r1, #0
  42              		.loc 1 22 0
  43 0008 2368     		ldr	r3, [r4]
  44 000a 0193     		str	r3, [sp, #4]
  45              		.loc 1 23 0
  46 000c 0846     		mov	r0, r1
  47 000e FFF7FEFF 		bl	set_led
  48              	.LVL0:
  49              		.loc 1 24 0
  50 0012 0021     		movs	r1, #0
  51 0014 0120     		movs	r0, #1
  52 0016 FFF7FEFF 		bl	set_led
  53              	.LVL1:
  54              		.loc 1 25 0
  55 001a 0021     		movs	r1, #0
  56 001c 0220     		movs	r0, #2
  57 001e FFF7FEFF 		bl	set_led
ARM GAS  C:\Users\41786\AppData\Local\Temp\ccWekbSf.s 			page 2


  58              	.LVL2:
  59              		.loc 1 26 0
  60 0022 0021     		movs	r1, #0
  61 0024 0320     		movs	r0, #3
  62 0026 FFF7FEFF 		bl	set_led
  63              	.LVL3:
  64              		.loc 1 27 0
  65 002a 0020     		movs	r0, #0
  66 002c FFF7FEFF 		bl	set_body_led
  67              	.LVL4:
  68              		.loc 1 28 0
  69 0030 019A     		ldr	r2, [sp, #4]
  70 0032 2368     		ldr	r3, [r4]
  71 0034 9A42     		cmp	r2, r3
  72 0036 05D1     		bne	.L6
  73 0038 0020     		movs	r0, #0
  74              		.loc 1 33 0
  75 003a 02B0     		add	sp, sp, #8
  76              		.cfi_remember_state
  77              		.cfi_def_cfa_offset 8
  78              		@ sp needed
  79 003c BDE81040 		pop	{r4, lr}
  80              		.cfi_restore 14
  81              		.cfi_restore 4
  82              		.cfi_def_cfa_offset 0
  83              		.loc 1 28 0
  84 0040 FFF7FEBF 		b	set_front_led
  85              	.LVL5:
  86              	.L6:
  87              		.cfi_restore_state
  88 0044 FFF7FEFF 		bl	__stack_chk_fail
  89              	.LVL6:
  90              	.L8:
  91              		.align	2
  92              	.L7:
  93 0048 00000000 		.word	__stack_chk_guard
  94              		.cfi_endproc
  95              	.LFE257:
  96              		.size	reset_leds, .-reset_leds
  97              		.section	.text.set_tracking_leds,"ax",%progbits
  98              		.align	1
  99              		.p2align 4,,15
 100              		.global	set_tracking_leds
 101              		.syntax unified
 102              		.thumb
 103              		.thumb_func
 104              		.fpu fpv4-sp-d16
 105              		.type	set_tracking_leds, %function
 106              	set_tracking_leds:
 107              	.LFB258:
 108              		.loc 1 34 0
 109              		.cfi_startproc
 110              		@ args = 0, pretend = 0, frame = 8
 111              		@ frame_needed = 0, uses_anonymous_args = 0
 112              	.LVL7:
 113 0000 10B5     		push	{r4, lr}
 114              		.cfi_def_cfa_offset 8
ARM GAS  C:\Users\41786\AppData\Local\Temp\ccWekbSf.s 			page 3


 115              		.cfi_offset 4, -8
 116              		.cfi_offset 14, -4
 117 0002 2DED028B 		vpush.64	{d8}
 118              		.cfi_def_cfa_offset 16
 119              		.cfi_offset 80, -16
 120              		.cfi_offset 81, -12
 121 0006 5C4C     		ldr	r4, .L59
 122 0008 82B0     		sub	sp, sp, #8
 123              		.cfi_def_cfa_offset 24
 124              		.loc 1 34 0
 125 000a 2368     		ldr	r3, [r4]
 126 000c 0193     		str	r3, [sp, #4]
 127              		.loc 1 35 0
 128 000e FFF7FEFF 		bl	clear_leds
 129              	.LVL8:
 130              		.loc 1 36 0
 131 0012 FFF7FEFF 		bl	get_angle
 132              	.LVL9:
 133              		.loc 1 37 0
 134 0016 DFED597A 		vldr.32	s15, .L59+4
 135 001a B4EEE70A 		vcmpe.f32	s0, s15
 136 001e F1EE10FA 		vmrs	APSR_nzcv, FPSCR
 137              		.loc 1 36 0
 138 0022 B0EE408A 		vmov.f32	s16, s0
 139              	.LVL10:
 140              		.loc 1 37 0
 141 0026 74D4     		bmi	.L10
 142              		.loc 1 37 0 is_stmt 0 discriminator 2
 143 0028 DFED557A 		vldr.32	s15, .L59+8
 144 002c B4EEE70A 		vcmpe.f32	s0, s15
 145 0030 F1EE10FA 		vmrs	APSR_nzcv, FPSCR
 146 0034 6DDC     		bgt	.L10
 147              	.LVL11:
 148              	.L11:
 149              		.loc 1 38 0 is_stmt 1
 150 0036 DFED537A 		vldr.32	s15, .L59+12
 151 003a B4EEE78A 		vcmpe.f32	s16, s15
 152 003e F1EE10FA 		vmrs	APSR_nzcv, FPSCR
 153 0042 06DD     		ble	.L13
 154              		.loc 1 38 0 is_stmt 0 discriminator 1
 155 0044 DFED507A 		vldr.32	s15, .L59+16
 156 0048 B4EEE78A 		vcmpe.f32	s16, s15
 157 004c F1EE10FA 		vmrs	APSR_nzcv, FPSCR
 158 0050 6BD4     		bmi	.L51
 159              	.L13:
 160              		.loc 1 39 0 is_stmt 1
 161 0052 DFED4A7A 		vldr.32	s15, .L59+4
 162 0056 B4EEE78A 		vcmpe.f32	s16, s15
 163 005a F1EE10FA 		vmrs	APSR_nzcv, FPSCR
 164 005e 06DD     		ble	.L16
 165              		.loc 1 39 0 is_stmt 0 discriminator 1
 166 0060 DFED4A7A 		vldr.32	s15, .L59+20
 167 0064 B4EEE78A 		vcmpe.f32	s16, s15
 168 0068 F1EE10FA 		vmrs	APSR_nzcv, FPSCR
 169 006c 64D4     		bmi	.L52
 170              	.L16:
 171              		.loc 1 40 0 is_stmt 1
ARM GAS  C:\Users\41786\AppData\Local\Temp\ccWekbSf.s 			page 4


 172 006e DFED487A 		vldr.32	s15, .L59+24
 173 0072 B4EEE78A 		vcmpe.f32	s16, s15
 174 0076 F1EE10FA 		vmrs	APSR_nzcv, FPSCR
 175 007a 06DD     		ble	.L19
 176              		.loc 1 40 0 is_stmt 0 discriminator 1
 177 007c DFED457A 		vldr.32	s15, .L59+28
 178 0080 B4EEE78A 		vcmpe.f32	s16, s15
 179 0084 F1EE10FA 		vmrs	APSR_nzcv, FPSCR
 180 0088 5BD4     		bmi	.L53
 181              	.L19:
 182              		.loc 1 41 0 is_stmt 1
 183 008a DFED407A 		vldr.32	s15, .L59+20
 184 008e B4EEE78A 		vcmpe.f32	s16, s15
 185 0092 F1EE10FA 		vmrs	APSR_nzcv, FPSCR
 186 0096 06DD     		ble	.L22
 187              		.loc 1 41 0 is_stmt 0 discriminator 1
 188 0098 DFED3F7A 		vldr.32	s15, .L59+32
 189 009c B4EEE78A 		vcmpe.f32	s16, s15
 190 00a0 F1EE10FA 		vmrs	APSR_nzcv, FPSCR
 191 00a4 54D4     		bmi	.L54
 192              	.L22:
 193              		.loc 1 42 0 is_stmt 1
 194 00a6 DFED3D7A 		vldr.32	s15, .L59+36
 195 00aa B4EEE78A 		vcmpe.f32	s16, s15
 196 00ae F1EE10FA 		vmrs	APSR_nzcv, FPSCR
 197 00b2 06DD     		ble	.L25
 198              		.loc 1 42 0 is_stmt 0 discriminator 1
 199 00b4 DFED3A7A 		vldr.32	s15, .L59+40
 200 00b8 B4EEE78A 		vcmpe.f32	s16, s15
 201 00bc F1EE10FA 		vmrs	APSR_nzcv, FPSCR
 202 00c0 4BD4     		bmi	.L55
 203              	.L25:
 204              		.loc 1 43 0 is_stmt 1
 205 00c2 DFED357A 		vldr.32	s15, .L59+32
 206 00c6 B4EEE78A 		vcmpe.f32	s16, s15
 207 00ca F1EE10FA 		vmrs	APSR_nzcv, FPSCR
 208 00ce 06DD     		ble	.L28
 209              		.loc 1 43 0 is_stmt 0 discriminator 1
 210 00d0 DFED2B7A 		vldr.32	s15, .L59+8
 211 00d4 B4EEE78A 		vcmpe.f32	s16, s15
 212 00d8 F1EE10FA 		vmrs	APSR_nzcv, FPSCR
 213 00dc 44D4     		bmi	.L56
 214              	.L28:
 215              		.loc 1 44 0 is_stmt 1
 216 00de DFED317A 		vldr.32	s15, .L59+44
 217 00e2 B4EEE78A 		vcmpe.f32	s16, s15
 218 00e6 F1EE10FA 		vmrs	APSR_nzcv, FPSCR
 219 00ea 06DD     		ble	.L31
 220              		.loc 1 44 0 is_stmt 0 discriminator 1
 221 00ec DFED2E7A 		vldr.32	s15, .L59+48
 222 00f0 B4EEE78A 		vcmpe.f32	s16, s15
 223 00f4 F1EE10FA 		vmrs	APSR_nzcv, FPSCR
 224 00f8 10D4     		bmi	.L57
 225              	.L31:
 226              		.loc 1 45 0 is_stmt 1
 227 00fa 019A     		ldr	r2, [sp, #4]
 228 00fc 2368     		ldr	r3, [r4]
ARM GAS  C:\Users\41786\AppData\Local\Temp\ccWekbSf.s 			page 5


 229 00fe 9A42     		cmp	r2, r3
 230 0100 37D1     		bne	.L58
 231 0102 0120     		movs	r0, #1
 232              		.loc 1 46 0
 233 0104 02B0     		add	sp, sp, #8
 234              		.cfi_remember_state
 235              		.cfi_def_cfa_offset 16
 236              		@ sp needed
 237 0106 BDEC028B 		vldm	sp!, {d8}
 238              		.cfi_restore 80
 239              		.cfi_restore 81
 240              		.cfi_def_cfa_offset 8
 241              	.LVL12:
 242 010a BDE81040 		pop	{r4, lr}
 243              		.cfi_restore 14
 244              		.cfi_restore 4
 245              		.cfi_def_cfa_offset 0
 246              		.loc 1 45 0
 247 010e FFF7FEBF 		b	set_front_led
 248              	.LVL13:
 249              	.L10:
 250              		.cfi_restore_state
 251              		.loc 1 37 0 discriminator 3
 252 0112 0121     		movs	r1, #1
 253 0114 0020     		movs	r0, #0
 254 0116 FFF7FEFF 		bl	set_led
 255              	.LVL14:
 256 011a 8CE7     		b	.L11
 257              	.L57:
 258              		.loc 1 44 0 discriminator 2
 259 011c 0023     		movs	r3, #0
 260 011e 1A46     		mov	r2, r3
 261 0120 1846     		mov	r0, r3
 262 0122 FF21     		movs	r1, #255
 263 0124 FFF7FEFF 		bl	set_rgb_led
 264              	.LVL15:
 265 0128 E7E7     		b	.L31
 266              	.L51:
 267              		.loc 1 38 0 discriminator 2
 268 012a 0023     		movs	r3, #0
 269 012c 1A46     		mov	r2, r3
 270 012e FF21     		movs	r1, #255
 271 0130 0320     		movs	r0, #3
 272 0132 FFF7FEFF 		bl	set_rgb_led
 273              	.LVL16:
 274 0136 8CE7     		b	.L13
 275              	.L52:
 276              		.loc 1 39 0 discriminator 2
 277 0138 0121     		movs	r1, #1
 278 013a 0320     		movs	r0, #3
 279 013c FFF7FEFF 		bl	set_led
 280              	.LVL17:
 281 0140 95E7     		b	.L16
 282              	.L53:
 283              		.loc 1 40 0 discriminator 2
 284 0142 0023     		movs	r3, #0
 285 0144 1A46     		mov	r2, r3
ARM GAS  C:\Users\41786\AppData\Local\Temp\ccWekbSf.s 			page 6


 286 0146 FF21     		movs	r1, #255
 287 0148 0220     		movs	r0, #2
 288 014a FFF7FEFF 		bl	set_rgb_led
 289              	.LVL18:
 290 014e 9CE7     		b	.L19
 291              	.L54:
 292              		.loc 1 41 0 discriminator 2
 293 0150 0121     		movs	r1, #1
 294 0152 0220     		movs	r0, #2
 295 0154 FFF7FEFF 		bl	set_led
 296              	.LVL19:
 297 0158 A5E7     		b	.L22
 298              	.L55:
 299              		.loc 1 42 0 discriminator 2
 300 015a 0023     		movs	r3, #0
 301 015c 1A46     		mov	r2, r3
 302 015e FF21     		movs	r1, #255
 303 0160 0120     		movs	r0, #1
 304 0162 FFF7FEFF 		bl	set_rgb_led
 305              	.LVL20:
 306 0166 ACE7     		b	.L25
 307              	.L56:
 308              		.loc 1 43 0 discriminator 2
 309 0168 0121     		movs	r1, #1
 310 016a 0846     		mov	r0, r1
 311 016c FFF7FEFF 		bl	set_led
 312              	.LVL21:
 313 0170 B5E7     		b	.L28
 314              	.L58:
 315              		.loc 1 45 0
 316 0172 FFF7FEFF 		bl	__stack_chk_fail
 317              	.LVL22:
 318              	.L60:
 319 0176 00BF     		.align	2
 320              	.L59:
 321 0178 00000000 		.word	__stack_chk_guard
 322 017c DB0F493F 		.word	1061752795
 323 0180 E0EDAF40 		.word	1085271520
 324 0184 DB0FC93E 		.word	1053364187
 325 0188 E4CB963F 		.word	1066847204
 326 018c E4CB1640 		.word	1075235812
 327 0190 D253FB3F 		.word	1073435602
 328 0194 E0ED2F40 		.word	1076882912
 329 0198 D2537B40 		.word	1081824210
 330 019c D6316240 		.word	1080177110
 331 01a0 E73A8A40 		.word	1082800871
 332 01a4 E25CA340 		.word	1084447970
 333 01a8 DD7EBC40 		.word	1086095069
 334              		.cfi_endproc
 335              	.LFE258:
 336              		.size	set_tracking_leds, .-set_tracking_leds
 337              		.section	.text.animation_leds,"ax",%progbits
 338              		.align	1
 339              		.p2align 4,,15
 340              		.global	animation_leds
 341              		.syntax unified
 342              		.thumb
ARM GAS  C:\Users\41786\AppData\Local\Temp\ccWekbSf.s 			page 7


 343              		.thumb_func
 344              		.fpu fpv4-sp-d16
 345              		.type	animation_leds, %function
 346              	animation_leds:
 347              	.LFB259:
 348              		.loc 1 49 0
 349              		.cfi_startproc
 350              		@ args = 0, pretend = 0, frame = 8
 351              		@ frame_needed = 0, uses_anonymous_args = 0
 352 0000 70B5     		push	{r4, r5, r6, lr}
 353              		.cfi_def_cfa_offset 16
 354              		.cfi_offset 4, -16
 355              		.cfi_offset 5, -12
 356              		.cfi_offset 6, -8
 357              		.cfi_offset 14, -4
 358 0002 4F4D     		ldr	r5, .L91
 359 0004 82B0     		sub	sp, sp, #8
 360              		.cfi_def_cfa_offset 24
 361              		.loc 1 49 0
 362 0006 2B68     		ldr	r3, [r5]
 363 0008 0193     		str	r3, [sp, #4]
 364              		.loc 1 54 0
 365 000a FFF7FEFF 		bl	get_parcours_etat
 366              	.LVL23:
 367 000e 0446     		mov	r4, r0
 368              	.LVL24:
 369              		.loc 1 55 0
 370 0010 0328     		cmp	r0, #3
 371 0012 76D8     		bhi	.L62
 372 0014 DFE800F0 		tbb	[pc, r0]
 373              	.L64:
 374 0018 52       		.byte	(.L63-.L64)/2
 375 0019 6E       		.byte	(.L65-.L64)/2
 376 001a 37       		.byte	(.L66-.L64)/2
 377 001b 02       		.byte	(.L67-.L64)/2
 378              		.p2align 1
 379              	.L67:
 380              		.loc 1 96 0
 381 001c 494E     		ldr	r6, .L91+4
 382 001e 3378     		ldrb	r3, [r6]	@ zero_extendqisi2
 383 0020 032B     		cmp	r3, #3
 384 0022 01D0     		beq	.L71
 385              		.loc 1 96 0 is_stmt 0 discriminator 1
 386 0024 FFF7FEFF 		bl	clear_leds
 387              	.LVL25:
 388              	.L71:
 389              		.loc 1 97 0 is_stmt 1
 390 0028 8022     		movs	r2, #128
 391 002a 0121     		movs	r1, #1
 392 002c 0020     		movs	r0, #0
 393 002e FFF7FEFF 		bl	toggle_rgb_led
 394              	.LVL26:
 395              		.loc 1 98 0
 396 0032 0121     		movs	r1, #1
 397 0034 0846     		mov	r0, r1
 398 0036 8022     		movs	r2, #128
 399 0038 FFF7FEFF 		bl	toggle_rgb_led
ARM GAS  C:\Users\41786\AppData\Local\Temp\ccWekbSf.s 			page 8


 400              	.LVL27:
 401              		.loc 1 99 0
 402 003c 8022     		movs	r2, #128
 403 003e 0121     		movs	r1, #1
 404 0040 0220     		movs	r0, #2
 405 0042 FFF7FEFF 		bl	toggle_rgb_led
 406              	.LVL28:
 407              		.loc 1 100 0
 408 0046 8022     		movs	r2, #128
 409 0048 0121     		movs	r1, #1
 410 004a 0320     		movs	r0, #3
 411 004c FFF7FEFF 		bl	toggle_rgb_led
 412              	.LVL29:
 413              	.L87:
 414              		.loc 1 101 0
 415 0050 0021     		movs	r1, #0
 416 0052 0846     		mov	r0, r1
 417 0054 FF22     		movs	r2, #255
 418 0056 FFF7FEFF 		bl	toggle_rgb_led
 419              	.LVL30:
 420              		.loc 1 102 0
 421 005a FF22     		movs	r2, #255
 422 005c 0021     		movs	r1, #0
 423 005e 0120     		movs	r0, #1
 424 0060 FFF7FEFF 		bl	toggle_rgb_led
 425              	.LVL31:
 426              		.loc 1 103 0
 427 0064 FF22     		movs	r2, #255
 428 0066 0021     		movs	r1, #0
 429 0068 0220     		movs	r0, #2
 430 006a FFF7FEFF 		bl	toggle_rgb_led
 431              	.LVL32:
 432              		.loc 1 104 0
 433 006e FF22     		movs	r2, #255
 434 0070 0021     		movs	r1, #0
 435 0072 0320     		movs	r0, #3
 436 0074 FFF7FEFF 		bl	toggle_rgb_led
 437              	.LVL33:
 438              	.L68:
 439              		.loc 1 117 0
 440 0078 019A     		ldr	r2, [sp, #4]
 441 007a 2B68     		ldr	r3, [r5]
 442              		.loc 1 116 0
 443 007c 3470     		strb	r4, [r6]
 444              		.loc 1 117 0
 445 007e 9A42     		cmp	r2, r3
 446 0080 5BD1     		bne	.L89
 447 0082 02B0     		add	sp, sp, #8
 448              		.cfi_remember_state
 449              		.cfi_def_cfa_offset 16
 450              		@ sp needed
 451 0084 70BD     		pop	{r4, r5, r6, pc}
 452              	.LVL34:
 453              	.L66:
 454              		.cfi_restore_state
 455              		.loc 1 84 0
 456 0086 2F4E     		ldr	r6, .L91+4
ARM GAS  C:\Users\41786\AppData\Local\Temp\ccWekbSf.s 			page 9


 457 0088 3378     		ldrb	r3, [r6]	@ zero_extendqisi2
 458 008a 022B     		cmp	r3, #2
 459 008c 01D0     		beq	.L70
 460              		.loc 1 84 0 is_stmt 0 discriminator 1
 461 008e FFF7FEFF 		bl	clear_leds
 462              	.LVL35:
 463              	.L70:
 464              		.loc 1 85 0 is_stmt 1
 465 0092 FF22     		movs	r2, #255
 466 0094 0121     		movs	r1, #1
 467 0096 0020     		movs	r0, #0
 468 0098 FFF7FEFF 		bl	toggle_rgb_led
 469              	.LVL36:
 470              		.loc 1 86 0
 471 009c 0121     		movs	r1, #1
 472 009e 0846     		mov	r0, r1
 473 00a0 FF22     		movs	r2, #255
 474 00a2 FFF7FEFF 		bl	toggle_rgb_led
 475              	.LVL37:
 476              		.loc 1 87 0
 477 00a6 FF22     		movs	r2, #255
 478 00a8 0121     		movs	r1, #1
 479 00aa 0220     		movs	r0, #2
 480 00ac FFF7FEFF 		bl	toggle_rgb_led
 481              	.LVL38:
 482              		.loc 1 88 0
 483 00b0 FF22     		movs	r2, #255
 484              		.loc 1 100 0
 485 00b2 0121     		movs	r1, #1
 486 00b4 0320     		movs	r0, #3
 487 00b6 FFF7FEFF 		bl	toggle_rgb_led
 488              	.LVL39:
 489 00ba C9E7     		b	.L87
 490              	.LVL40:
 491              	.L63:
 492              		.loc 1 59 0
 493 00bc FFF7FEFF 		bl	get_idle_state
 494              	.LVL41:
 495              		.loc 1 60 0
 496 00c0 0646     		mov	r6, r0
 497 00c2 A8B9     		cbnz	r0, .L86
 498              		.loc 1 64 0
 499 00c4 FFF7FEFF 		bl	clear_leds
 500              	.LVL42:
 501              		.loc 1 65 0
 502 00c8 3046     		mov	r0, r6
 503 00ca FF22     		movs	r2, #255
 504 00cc 0121     		movs	r1, #1
 505 00ce FFF7FEFF 		bl	toggle_rgb_led
 506              	.LVL43:
 507              		.loc 1 66 0
 508 00d2 0121     		movs	r1, #1
 509 00d4 0846     		mov	r0, r1
 510 00d6 FF22     		movs	r2, #255
 511 00d8 FFF7FEFF 		bl	toggle_rgb_led
 512              	.LVL44:
 513              		.loc 1 67 0
ARM GAS  C:\Users\41786\AppData\Local\Temp\ccWekbSf.s 			page 10


 514 00dc FF22     		movs	r2, #255
 515 00de 0121     		movs	r1, #1
 516 00e0 0220     		movs	r0, #2
 517 00e2 FFF7FEFF 		bl	toggle_rgb_led
 518              	.LVL45:
 519              		.loc 1 68 0
 520 00e6 FF22     		movs	r2, #255
 521 00e8 0121     		movs	r1, #1
 522 00ea 0320     		movs	r0, #3
 523 00ec FFF7FEFF 		bl	toggle_rgb_led
 524              	.LVL46:
 525              	.L86:
 526 00f0 144E     		ldr	r6, .L91+4
 527 00f2 C1E7     		b	.L68
 528              	.LVL47:
 529              	.L65:
 530              		.loc 1 76 0
 531 00f4 134E     		ldr	r6, .L91+4
 532 00f6 3378     		ldrb	r3, [r6]	@ zero_extendqisi2
 533 00f8 012B     		cmp	r3, #1
 534 00fa A9D0     		beq	.L87
 535              		.loc 1 76 0 is_stmt 0 discriminator 1
 536 00fc FFF7FEFF 		bl	clear_leds
 537              	.LVL48:
 538 0100 A6E7     		b	.L87
 539              	.LVL49:
 540              	.L62:
 541              		.loc 1 109 0 is_stmt 1
 542 0102 104E     		ldr	r6, .L91+4
 543 0104 3378     		ldrb	r3, [r6]	@ zero_extendqisi2
 544 0106 8342     		cmp	r3, r0
 545 0108 14D1     		bne	.L90
 546              	.LVL50:
 547              	.L72:
 548              		.loc 1 111 0
 549 010a FF22     		movs	r2, #255
 550 010c 0221     		movs	r1, #2
 551 010e 0020     		movs	r0, #0
 552 0110 FFF7FEFF 		bl	toggle_rgb_led
 553              	.LVL51:
 554              		.loc 1 112 0
 555 0114 FF22     		movs	r2, #255
 556 0116 0221     		movs	r1, #2
 557 0118 0120     		movs	r0, #1
 558 011a FFF7FEFF 		bl	toggle_rgb_led
 559              	.LVL52:
 560              		.loc 1 113 0
 561 011e 0221     		movs	r1, #2
 562 0120 0846     		mov	r0, r1
 563 0122 FF22     		movs	r2, #255
 564 0124 FFF7FEFF 		bl	toggle_rgb_led
 565              	.LVL53:
 566              		.loc 1 114 0
 567 0128 FF22     		movs	r2, #255
 568 012a 0221     		movs	r1, #2
 569 012c 0320     		movs	r0, #3
 570 012e FFF7FEFF 		bl	toggle_rgb_led
ARM GAS  C:\Users\41786\AppData\Local\Temp\ccWekbSf.s 			page 11


 571              	.LVL54:
 572 0132 A1E7     		b	.L68
 573              	.LVL55:
 574              	.L90:
 575              		.loc 1 109 0 discriminator 1
 576 0134 FFF7FEFF 		bl	clear_leds
 577              	.LVL56:
 578 0138 E7E7     		b	.L72
 579              	.L89:
 580              		.loc 1 117 0
 581 013a FFF7FEFF 		bl	__stack_chk_fail
 582              	.LVL57:
 583              	.L92:
 584 013e 00BF     		.align	2
 585              	.L91:
 586 0140 00000000 		.word	__stack_chk_guard
 587 0144 00000000 		.word	.LANCHOR0
 588              		.cfi_endproc
 589              	.LFE259:
 590              		.size	animation_leds, .-animation_leds
 591              		.section	.text.Animations,"ax",%progbits
 592              		.align	1
 593              		.p2align 4,,15
 594              		.syntax unified
 595              		.thumb
 596              		.thumb_func
 597              		.fpu fpv4-sp-d16
 598              		.type	Animations, %function
 599              	Animations:
 600              	.LFB261:
 601              		.loc 1 126 0
 602              		.cfi_startproc
 603              		@ args = 0, pretend = 0, frame = 8
 604              		@ frame_needed = 0, uses_anonymous_args = 0
 605              	.LVL58:
 606 0000 2DE9F04F 		push	{r4, r5, r6, r7, r8, r9, r10, fp, lr}
 607              		.cfi_def_cfa_offset 36
 608              		.cfi_offset 4, -36
 609              		.cfi_offset 5, -32
 610              		.cfi_offset 6, -28
 611              		.cfi_offset 7, -24
 612              		.cfi_offset 8, -20
 613              		.cfi_offset 9, -16
 614              		.cfi_offset 10, -12
 615              		.cfi_offset 11, -8
 616              		.cfi_offset 14, -4
 617              	.LBB50:
 618              	.LBB51:
 619              		.file 2 "../../lib/e-puck2_main-processor/ChibiOS//os/rt/include/chregistry.h"
 620              		.loc 2 135 0
 621 0004 244C     		ldr	r4, .L101
 622              	.LBE51:
 623              	.LBE50:
 624              		.loc 1 126 0
 625 0006 254B     		ldr	r3, .L101+4
 626              	.LBB54:
 627              	.LBB52:
ARM GAS  C:\Users\41786\AppData\Local\Temp\ccWekbSf.s 			page 12


 628              		.loc 2 135 0
 629 0008 A269     		ldr	r2, [r4, #24]
 630 000a 2549     		ldr	r1, .L101+8
 631              	.LBE52:
 632              	.LBE54:
 633              		.loc 1 126 0
 634 000c 1B68     		ldr	r3, [r3]
 635 000e 254E     		ldr	r6, .L101+12
 636 0010 DFF894A0 		ldr	r10, .L101+16
 637              	.LBB55:
 638              	.LBB56:
 639              	.LBB57:
 640              	.LBB58:
 641              	.LBB59:
 642              		.file 3 "../../lib/e-puck2_main-processor/ChibiOS//os/rt/include/chsys.h"
 643              		.loc 3 367 0
 644 0014 DFF89490 		ldr	r9, .L101+20
 645              	.LBE59:
 646              	.LBE58:
 647              	.LBE57:
 648              	.LBE56:
 649              	.LBE55:
 650              	.LBB88:
 651              	.LBB53:
 652              		.loc 2 135 0
 653 0018 9161     		str	r1, [r2, #24]
 654              	.LBE53:
 655              	.LBE88:
 656              		.loc 1 126 0
 657 001a 83B0     		sub	sp, sp, #12
 658              		.cfi_def_cfa_offset 48
 659              	.LBB89:
 660              	.LBB85:
 661              	.LBB82:
 662              	.LBB68:
 663              	.LBB69:
 664              	.LBB70:
 665              	.LBB71:
 666              	.LBB72:
 667              		.file 4 "../../lib/e-puck2_main-processor/ChibiOS//os/ext/CMSIS/include/core_cmFunc.h"
 668              		.loc 4 546 0
 669 001c 4FF02008 		mov	r8, #32
 670              	.LBE72:
 671              	.LBE71:
 672              	.LBE70:
 673              	.LBE69:
 674              	.LBE68:
 675              	.LBE82:
 676              	.LBE85:
 677              	.LBE89:
 678              		.loc 1 126 0
 679 0020 0193     		str	r3, [sp, #4]
 680              	.LVL59:
 681              	.LBB90:
 682              	.LBB86:
 683              	.LBB83:
 684              	.LBB77:
ARM GAS  C:\Users\41786\AppData\Local\Temp\ccWekbSf.s 			page 13


 685              	.LBB66:
 686              	.LBB60:
 687              	.LBB61:
 688              	.LBB62:
 689              		.loc 4 546 0
 690 0022 0027     		movs	r7, #0
 691 0024 06E0     		b	.L98
 692              	.LVL60:
 693              	.L96:
 694              	.LBE62:
 695              	.LBE61:
 696              	.LBE60:
 697              	.LBE66:
 698              	.LBE77:
 699              	.LBE83:
 700              	.LBE86:
 701              		.loc 1 152 0
 702 0026 FFF7FEFF 		bl	animation_leds
 703              	.LVL61:
 704              		.loc 1 153 0
 705 002a 05F5FA71 		add	r1, r5, #500
 706 002e 2846     		mov	r0, r5
 707 0030 FFF7FEFF 		bl	chThdSleepUntilWindowed
 708              	.LVL62:
 709              	.L98:
 710              	.LBB87:
 711              	.LBB84:
 712              	.LBB78:
 713              	.LBB76:
 714              	.LBB75:
 715              	.LBB74:
 716              	.LBB73:
 717              		.loc 4 546 0
 718              		.syntax unified
 719              	@ 546 "../../lib/e-puck2_main-processor/ChibiOS//os/ext/CMSIS/include/core_cmFunc.h" 1
 720 0034 88F31188 		MSR basepri, r8
 721              	@ 0 "" 2
 722              	.LVL63:
 723              		.thumb
 724              		.syntax unified
 725              	.LBE73:
 726              	.LBE74:
 727              	.LBE75:
 728              		.loc 3 349 0
 729 0038 FFF7FEFF 		bl	_stats_start_measure_crit_thd
 730              	.LVL64:
 731              		.loc 3 350 0
 732 003c FFF7FEFF 		bl	_dbg_check_lock
 733              	.LVL65:
 734              	.LBE76:
 735              	.LBE78:
 736              	.LBB79:
 737              	.LBB80:
 738              		.file 5 "../../lib/e-puck2_main-processor/ChibiOS//os/rt/include/chvt.h"
 739              		.loc 5 231 0
 740 0040 A56A     		ldr	r5, [r4, #40]
 741              	.LBE80:
ARM GAS  C:\Users\41786\AppData\Local\Temp\ccWekbSf.s 			page 14


 742              	.LBE79:
 743              	.LBB81:
 744              	.LBB67:
 745              		.loc 3 360 0
 746 0042 FFF7FEFF 		bl	_dbg_check_unlock
 747              	.LVL66:
 748              		.loc 3 361 0
 749 0046 FFF7FEFF 		bl	_stats_stop_measure_crit_thd
 750              	.LVL67:
 751              		.loc 3 367 0
 752 004a 2368     		ldr	r3, [r4]
 753 004c A342     		cmp	r3, r4
 754 004e 07D0     		beq	.L94
 755 0050 A269     		ldr	r2, [r4, #24]
 756 0052 9B68     		ldr	r3, [r3, #8]
 757 0054 9268     		ldr	r2, [r2, #8]
 758 0056 9A42     		cmp	r2, r3
 759 0058 02D2     		bcs	.L94
 760 005a 4846     		mov	r0, r9
 761 005c FFF7FEFF 		bl	chSysHalt
 762              	.LVL68:
 763              	.L94:
 764              	.LBB65:
 765              	.LBB64:
 766              	.LBB63:
 767              		.loc 4 546 0
 768              		.syntax unified
 769              	@ 546 "../../lib/e-puck2_main-processor/ChibiOS//os/ext/CMSIS/include/core_cmFunc.h" 1
 770 0060 87F31188 		MSR basepri, r7
 771              	@ 0 "" 2
 772              	.LVL69:
 773              		.thumb
 774              		.syntax unified
 775              	.LBE63:
 776              	.LBE64:
 777              	.LBE65:
 778              	.LBE67:
 779              	.LBE81:
 780              	.LBE84:
 781              	.LBE87:
 782              		.loc 1 139 0
 783 0064 FFF7FEFF 		bl	get_parcours_nouvelle_commande
 784              	.LVL70:
 785 0068 8346     		mov	fp, r0
 786              	.LVL71:
 787              		.loc 1 140 0
 788 006a FFF7FEFF 		bl	get_angle
 789              	.LVL72:
 790              		.loc 1 141 0
 791 006e BBF1000F 		cmp	fp, #0
 792 0072 D8D0     		beq	.L96
 793              		.loc 1 143 0
 794 0074 3378     		ldrb	r3, [r6]	@ zero_extendqisi2
 795              		.loc 1 144 0
 796 0076 0120     		movs	r0, #1
 797              		.loc 1 143 0
 798 0078 0344     		add	r3, r3, r0
ARM GAS  C:\Users\41786\AppData\Local\Temp\ccWekbSf.s 			page 15


 799 007a 3370     		strb	r3, [r6]
 800              		.loc 1 144 0
 801 007c FFF7FEFF 		bl	set_body_led
 802              	.LVL73:
 803              		.loc 1 145 0
 804 0080 3378     		ldrb	r3, [r6]	@ zero_extendqisi2
 805 0082 022B     		cmp	r3, #2
 806 0084 CFD1     		bne	.L96
 807              		.loc 1 147 0
 808 0086 0020     		movs	r0, #0
 809 0088 FFF7FEFF 		bl	set_body_led
 810              	.LVL74:
 811              		.loc 1 148 0
 812 008c 0123     		movs	r3, #1
 813 008e 8AF80030 		strb	r3, [r10]
 814              		.loc 1 149 0
 815 0092 3370     		strb	r3, [r6]
 816 0094 C7E7     		b	.L96
 817              	.L102:
 818 0096 00BF     		.align	2
 819              	.L101:
 820 0098 00000000 		.word	ch
 821 009c 00000000 		.word	__stack_chk_guard
 822 00a0 00000000 		.word	.LANCHOR1
 823 00a4 00000000 		.word	.LANCHOR3
 824 00a8 00000000 		.word	.LANCHOR4
 825 00ac 00000000 		.word	.LANCHOR2
 826              	.LBE90:
 827              		.cfi_endproc
 828              	.LFE261:
 829              		.size	Animations, .-Animations
 830              		.section	.text.get_animations_commande_validee,"ax",%progbits
 831              		.align	1
 832              		.p2align 4,,15
 833              		.global	get_animations_commande_validee
 834              		.syntax unified
 835              		.thumb
 836              		.thumb_func
 837              		.fpu fpv4-sp-d16
 838              		.type	get_animations_commande_validee, %function
 839              	get_animations_commande_validee:
 840              	.LFB260:
 841              		.loc 1 120 0
 842              		.cfi_startproc
 843              		@ args = 0, pretend = 0, frame = 8
 844              		@ frame_needed = 0, uses_anonymous_args = 0
 845 0000 00B5     		push	{lr}
 846              		.cfi_def_cfa_offset 4
 847              		.cfi_offset 14, -4
 848 0002 074B     		ldr	r3, .L107
 849              		.loc 1 121 0
 850 0004 0749     		ldr	r1, .L107+4
 851              		.loc 1 120 0
 852 0006 1A68     		ldr	r2, [r3]
 853              		.loc 1 122 0
 854 0008 0878     		ldrb	r0, [r1]	@ zero_extendqisi2
 855              		.loc 1 120 0
ARM GAS  C:\Users\41786\AppData\Local\Temp\ccWekbSf.s 			page 16


 856 000a 83B0     		sub	sp, sp, #12
 857              		.cfi_def_cfa_offset 16
 858              		.loc 1 120 0
 859 000c 0192     		str	r2, [sp, #4]
 860              		.loc 1 122 0
 861 000e 019A     		ldr	r2, [sp, #4]
 862 0010 1B68     		ldr	r3, [r3]
 863 0012 9A42     		cmp	r2, r3
 864 0014 02D1     		bne	.L106
 865 0016 03B0     		add	sp, sp, #12
 866              		.cfi_remember_state
 867              		.cfi_def_cfa_offset 4
 868              		@ sp needed
 869 0018 5DF804FB 		ldr	pc, [sp], #4
 870              	.L106:
 871              		.cfi_restore_state
 872 001c FFF7FEFF 		bl	__stack_chk_fail
 873              	.LVL75:
 874              	.L108:
 875              		.align	2
 876              	.L107:
 877 0020 00000000 		.word	__stack_chk_guard
 878 0024 00000000 		.word	.LANCHOR4
 879              		.cfi_endproc
 880              	.LFE260:
 881              		.size	get_animations_commande_validee, .-get_animations_commande_validee
 882              		.section	.text.animations_start,"ax",%progbits
 883              		.align	1
 884              		.p2align 4,,15
 885              		.global	animations_start
 886              		.syntax unified
 887              		.thumb
 888              		.thumb_func
 889              		.fpu fpv4-sp-d16
 890              		.type	animations_start, %function
 891              	animations_start:
 892              	.LFB262:
 893              		.loc 1 157 0
 894              		.cfi_startproc
 895              		@ args = 0, pretend = 0, frame = 8
 896              		@ frame_needed = 0, uses_anonymous_args = 0
 897 0000 10B5     		push	{r4, lr}
 898              		.cfi_def_cfa_offset 8
 899              		.cfi_offset 4, -8
 900              		.cfi_offset 14, -4
 901 0002 0A4C     		ldr	r4, .L113
 902              		.loc 1 158 0
 903 0004 0A4B     		ldr	r3, .L113+4
 904              		.loc 1 157 0
 905 0006 2268     		ldr	r2, [r4]
 906              		.loc 1 158 0
 907 0008 0A48     		ldr	r0, .L113+8
 908              		.loc 1 157 0
 909 000a 84B0     		sub	sp, sp, #16
 910              		.cfi_def_cfa_offset 24
 911              		.loc 1 158 0
 912 000c 4FF4FC71 		mov	r1, #504
ARM GAS  C:\Users\41786\AppData\Local\Temp\ccWekbSf.s 			page 17


 913              		.loc 1 157 0
 914 0010 0392     		str	r2, [sp, #12]
 915              		.loc 1 158 0
 916 0012 0022     		movs	r2, #0
 917 0014 0092     		str	r2, [sp]
 918 0016 4122     		movs	r2, #65
 919 0018 FFF7FEFF 		bl	chThdCreateStatic
 920              	.LVL76:
 921              		.loc 1 159 0
 922 001c 039A     		ldr	r2, [sp, #12]
 923 001e 2368     		ldr	r3, [r4]
 924 0020 9A42     		cmp	r2, r3
 925 0022 01D1     		bne	.L112
 926 0024 04B0     		add	sp, sp, #16
 927              		.cfi_remember_state
 928              		.cfi_def_cfa_offset 8
 929              		@ sp needed
 930 0026 10BD     		pop	{r4, pc}
 931              	.L112:
 932              		.cfi_restore_state
 933 0028 FFF7FEFF 		bl	__stack_chk_fail
 934              	.LVL77:
 935              	.L114:
 936              		.align	2
 937              	.L113:
 938 002c 00000000 		.word	__stack_chk_guard
 939 0030 00000000 		.word	Animations
 940 0034 00000000 		.word	.LANCHOR5
 941              		.cfi_endproc
 942              	.LFE262:
 943              		.size	animations_start, .-animations_start
 944              		.section	.bss.commande_validee,"aw",%nobits
 945              		.set	.LANCHOR4,. + 0
 946              		.type	commande_validee, %object
 947              		.size	commande_validee, 1
 948              	commande_validee:
 949 0000 00       		.space	1
 950              		.section	.bss.etat_parcours_buf.11486,"aw",%nobits
 951              		.set	.LANCHOR0,. + 0
 952              		.type	etat_parcours_buf.11486, %object
 953              		.size	etat_parcours_buf.11486, 1
 954              	etat_parcours_buf.11486:
 955 0000 00       		.space	1
 956              		.section	.bss.waAnimations,"aw",%nobits
 957              		.align	3
 958              		.set	.LANCHOR5,. + 0
 959              		.type	waAnimations, %object
 960              		.size	waAnimations, 504
 961              	waAnimations:
 962 0000 00000000 		.space	504
 962      00000000 
 962      00000000 
 962      00000000 
 962      00000000 
 963              		.section	.data.compteur_validation.11509,"aw",%progbits
 964              		.set	.LANCHOR3,. + 0
 965              		.type	compteur_validation.11509, %object
ARM GAS  C:\Users\41786\AppData\Local\Temp\ccWekbSf.s 			page 18


 966              		.size	compteur_validation.11509, 1
 967              	compteur_validation.11509:
 968 0000 01       		.byte	1
 969              		.section	.rodata.__FUNCTION__.11504,"a",%progbits
 970              		.align	2
 971              		.set	.LANCHOR1,. + 0
 972              		.type	__FUNCTION__.11504, %object
 973              		.size	__FUNCTION__.11504, 11
 974              	__FUNCTION__.11504:
 975 0000 416E696D 		.ascii	"Animations\000"
 975      6174696F 
 975      6E7300
 976              		.section	.rodata.__func__.7165,"a",%progbits
 977              		.align	2
 978              		.set	.LANCHOR2,. + 0
 979              		.type	__func__.7165, %object
 980              		.size	__func__.7165, 12
 981              	__func__.7165:
 982 0000 63685379 		.ascii	"chSysUnlock\000"
 982      73556E6C 
 982      6F636B00 
 983              		.text
 984              	.Letext0:
 985              		.file 6 "c:\\users\\41786\\desktop\\epfl\\microinfo\\eclipse_e-puck2\\tools\\gcc-arm-none-eabi-7-2
 986              		.file 7 "c:\\users\\41786\\desktop\\epfl\\microinfo\\eclipse_e-puck2\\tools\\gcc-arm-none-eabi-7-2
 987              		.file 8 "c:\\users\\41786\\desktop\\epfl\\microinfo\\eclipse_e-puck2\\tools\\gcc-arm-none-eabi-7-2
 988              		.file 9 "../../lib/e-puck2_main-processor/ChibiOS//os/rt/ports/ARMCMx/compilers/GCC/chtypes.h"
 989              		.file 10 "../../lib/e-puck2_main-processor/ChibiOS//os/rt/include/chsystypes.h"
 990              		.file 11 "../../lib/e-puck2_main-processor/ChibiOS//os/rt/include/chschd.h"
 991              		.file 12 "../../lib/e-puck2_main-processor/ChibiOS//os/ext/CMSIS/include/core_cm4.h"
 992              		.file 13 "../../lib/e-puck2_main-processor/ChibiOS//os/ext/CMSIS/ST/system_stm32f4xx.h"
 993              		.file 14 "../../lib/e-puck2_main-processor/ChibiOS//os/ext/CMSIS/ST/stm32f407xx.h"
 994              		.file 15 "../../lib/e-puck2_main-processor/ChibiOS//os/rt/ports/ARMCMx/chcore.h"
 995              		.file 16 "../../lib/e-puck2_main-processor/ChibiOS//os/rt/ports/ARMCMx/chcore_v7m.h"
 996              		.file 17 "../../lib/e-puck2_main-processor/ChibiOS//os/rt/include/chdebug.h"
 997              		.file 18 "../../lib/e-puck2_main-processor/ChibiOS//os/rt/include/chtm.h"
 998              		.file 19 "../../lib/e-puck2_main-processor/ChibiOS//os/rt/include/chstats.h"
 999              		.file 20 "../../lib/e-puck2_main-processor/ChibiOS//os/rt/include/chsem.h"
 1000              		.file 21 "../../lib/e-puck2_main-processor/ChibiOS//os/rt/include/chmtx.h"
 1001              		.file 22 "../../lib/e-puck2_main-processor/ChibiOS//os/rt/include/chevents.h"
 1002              		.file 23 "../../lib/e-puck2_main-processor/ChibiOS//os/rt/include/chqueues.h"
 1003              		.file 24 "../../lib/e-puck2_main-processor/ChibiOS//os/hal/ports/STM32/STM32F4xx/stm32_dma.h"
 1004              		.file 25 "../../lib/e-puck2_main-processor/ChibiOS//os/hal/include/hal_ioblock.h"
 1005              		.file 26 "../../lib/e-puck2_main-processor/ChibiOS//os/hal/ports/STM32/LLD/GPIOv2/pal_lld.h"
 1006              		.file 27 "../../lib/e-puck2_main-processor/ChibiOS//os/hal/include/adc.h"
 1007              		.file 28 "../../lib/e-puck2_main-processor/ChibiOS//os/hal/ports/STM32/STM32F4xx/adc_lld.h"
 1008              		.file 29 "../../lib/e-puck2_main-processor/ChibiOS//os/hal/include/can.h"
 1009              		.file 30 "../../lib/e-puck2_main-processor/ChibiOS//os/hal/ports/STM32/LLD/can_lld.h"
 1010              		.file 31 "../../lib/e-puck2_main-processor/ChibiOS//os/hal/include/dac.h"
 1011              		.file 32 "../../lib/e-puck2_main-processor/ChibiOS//os/hal/ports/STM32/LLD/DACv1/dac_lld.h"
 1012              		.file 33 "../../lib/e-puck2_main-processor/ChibiOS//os/hal/include/ext.h"
 1013              		.file 34 "../../lib/e-puck2_main-processor/ChibiOS//os/hal/ports/STM32/LLD/ext_lld.h"
 1014              		.file 35 "../../lib/e-puck2_main-processor/ChibiOS//os/hal/include/gpt.h"
 1015              		.file 36 "../../lib/e-puck2_main-processor/ChibiOS//os/hal/ports/STM32/LLD/TIMv1/gpt_lld.h"
 1016              		.file 37 "../../lib/e-puck2_main-processor/ChibiOS//os/hal/ports/STM32/LLD/TIMv1/stm32_tim.h"
 1017              		.file 38 "../../lib/e-puck2_main-processor/ChibiOS//os/hal/include/i2c.h"
 1018              		.file 39 "../../lib/e-puck2_main-processor/ChibiOS//os/hal/ports/STM32/LLD/I2Cv1/i2c_lld.h"
ARM GAS  C:\Users\41786\AppData\Local\Temp\ccWekbSf.s 			page 19


 1019              		.file 40 "../../lib/e-puck2_main-processor/ChibiOS//os/hal/include/i2s.h"
 1020              		.file 41 "../../lib/e-puck2_main-processor/ChibiOS//os/hal/ports/STM32/LLD/SPIv1/i2s_lld.h"
 1021              		.file 42 "../../lib/e-puck2_main-processor/ChibiOS//os/hal/include/pwm.h"
 1022              		.file 43 "../../lib/e-puck2_main-processor/ChibiOS//os/hal/ports/STM32/LLD/TIMv1/pwm_lld.h"
 1023              		.file 44 "../../lib/e-puck2_main-processor/ChibiOS//os/hal/include/serial.h"
 1024              		.file 45 "../../lib/e-puck2_main-processor/ChibiOS//os/hal/ports/STM32/LLD/USARTv1/serial_lld.h"
 1025              		.file 46 "../../lib/e-puck2_main-processor/ChibiOS//os/hal/include/sdc.h"
 1026              		.file 47 "../../lib/e-puck2_main-processor/ChibiOS//os/hal/ports/STM32/LLD/sdc_lld.h"
 1027              		.file 48 "../../lib/e-puck2_main-processor/ChibiOS//os/hal/include/spi.h"
 1028              		.file 49 "../../lib/e-puck2_main-processor/ChibiOS//os/hal/ports/STM32/LLD/SPIv1/spi_lld.h"
 1029              		.file 50 "../../lib/e-puck2_main-processor/ChibiOS//os/hal/include/usb.h"
 1030              		.file 51 "../../lib/e-puck2_main-processor/ChibiOS//os/hal/ports/STM32/LLD/OTGv1/usb_lld.h"
 1031              		.file 52 "../../lib/e-puck2_main-processor/ChibiOS//os/hal/ports/STM32/LLD/OTGv1/stm32_otg.h"
 1032              		.file 53 "../../lib/e-puck2_main-processor/ChibiOS//os/hal/include/serial_usb.h"
 1033              		.file 54 "../../lib/e-puck2_main-processor/ChibiOS_ext/os/hal/include/../ports/STM32/STM32F4xx/dcm
 1034              		.file 55 "c:\\users\\41786\\desktop\\epfl\\microinfo\\eclipse_e-puck2\\tools\\gcc-arm-none-eabi-7-
 1035              		.file 56 "c:\\users\\41786\\desktop\\epfl\\microinfo\\eclipse_e-puck2\\tools\\gcc-arm-none-eabi-7-
 1036              		.file 57 "c:\\users\\41786\\desktop\\epfl\\microinfo\\eclipse_e-puck2\\tools\\gcc-arm-none-eabi-7-
 1037              		.file 58 "../../lib/e-puck2_main-processor/src/msgbus/messagebus.h"
 1038              		.file 59 "c:\\users\\41786\\desktop\\epfl\\microinfo\\eclipse_e-puck2\\tools\\gcc-arm-none-eabi-7-
 1039              		.file 60 "c:\\users\\41786\\desktop\\epfl\\microinfo\\eclipse_e-puck2\\tools\\gcc-arm-none-eabi-7-
 1040              		.file 61 "../../lib/e-puck2_main-processor/src/parameter/parameter.h"
 1041              		.file 62 "./main.h"
 1042              		.file 63 "../../lib/e-puck2_main-processor/src/leds.h"
 1043              		.file 64 "../../lib/e-puck2_main-processor/src/usbcfg.h"
 1044              		.file 65 "parcours.h"
 1045              		.file 66 "../../lib/e-puck2_main-processor/ChibiOS//os/rt/include/chthreads.h"
 1046              		.file 67 "./traitement_son.h"