ARM GAS  C:\Users\41786\AppData\Local\Temp\ccnio81V.s 			page 1


   1              		.cpu cortex-m4
   2              		.eabi_attribute 27, 1
   3              		.eabi_attribute 28, 1
   4              		.eabi_attribute 20, 1
   5              		.eabi_attribute 21, 1
   6              		.eabi_attribute 23, 3
   7              		.eabi_attribute 24, 1
   8              		.eabi_attribute 25, 1
   9              		.eabi_attribute 26, 1
  10              		.eabi_attribute 30, 2
  11              		.eabi_attribute 34, 1
  12              		.eabi_attribute 18, 4
  13              		.file	"main.c"
  14              		.text
  15              	.Ltext0:
  16              		.cfi_sections	.debug_frame
  17              		.section	.text.startup.main,"ax",%progbits
  18              		.align	1
  19              		.p2align 4,,15
  20              		.global	main
  21              		.syntax unified
  22              		.thumb
  23              		.thumb_func
  24              		.fpu fpv4-sp-d16
  25              		.type	main, %function
  26              	main:
  27              	.LFB261:
  28              		.file 1 "main.c"
  29              		.loc 1 39 0
  30              		.cfi_startproc
  31              		@ args = 0, pretend = 0, frame = 8
  32              		@ frame_needed = 0, uses_anonymous_args = 0
  33 0000 F0B5     		push	{r4, r5, r6, r7, lr}
  34              		.cfi_def_cfa_offset 20
  35              		.cfi_offset 4, -20
  36              		.cfi_offset 5, -16
  37              		.cfi_offset 6, -12
  38              		.cfi_offset 7, -8
  39              		.cfi_offset 14, -4
  40 0002 3D4B     		ldr	r3, .L9
  41 0004 3D4C     		ldr	r4, .L9+4
  42 0006 1B68     		ldr	r3, [r3]
  43              	.LBB96:
  44              	.LBB97:
  45              	.LBB98:
  46              	.LBB99:
  47              	.LBB100:
  48              		.file 2 "../../lib/e-puck2_main-processor/ChibiOS//os/rt/include/chsys.h"
  49              		.loc 2 367 0
  50 0008 3D4F     		ldr	r7, .L9+8
  51              	.LBE100:
  52              	.LBE99:
  53              	.LBE98:
  54              	.LBE97:
  55              	.LBE96:
  56              		.loc 1 39 0
  57 000a 83B0     		sub	sp, sp, #12
ARM GAS  C:\Users\41786\AppData\Local\Temp\ccnio81V.s 			page 2


  58              		.cfi_def_cfa_offset 32
  59              	.LBB155:
  60              	.LBB125:
  61              	.LBB123:
  62              	.LBB109:
  63              	.LBB110:
  64              	.LBB111:
  65              	.LBB112:
  66              	.LBB113:
  67              		.file 3 "../../lib/e-puck2_main-processor/ChibiOS//os/ext/CMSIS/include/core_cmFunc.h"
  68              		.loc 3 546 0
  69 000c 2026     		movs	r6, #32
  70              	.LBE113:
  71              	.LBE112:
  72              	.LBE111:
  73              	.LBE110:
  74              	.LBE109:
  75              	.LBE123:
  76              	.LBE125:
  77              	.LBE155:
  78              		.loc 1 39 0
  79 000e 0193     		str	r3, [sp, #4]
  80              		.loc 1 41 0
  81 0010 FFF7FEFF 		bl	halInit
  82              	.LVL0:
  83              		.loc 1 42 0
  84 0014 FFF7FEFF 		bl	chSysInit
  85              	.LVL1:
  86              		.loc 1 43 0
  87 0018 FFF7FEFF 		bl	mpu_init
  88              	.LVL2:
  89              		.loc 1 46 0
  90 001c 394A     		ldr	r2, .L9+12
  91 001e 3A49     		ldr	r1, .L9+16
  92 0020 3A48     		ldr	r0, .L9+20
  93 0022 FFF7FEFF 		bl	messagebus_init
  94              	.LVL3:
  95              		.loc 1 49 0
  96 0026 FFF7FEFF 		bl	proximity_start
  97              	.LVL4:
  98              		.loc 1 51 0
  99 002a FFF7FEFF 		bl	spi_comm_start
 100              	.LVL5:
 101              	.LBB156:
 102              	.LBB157:
 103              		.loc 1 34 0
 104 002e 3849     		ldr	r1, .L9+24
 105 0030 3848     		ldr	r0, .L9+28
 106 0032 FFF7FEFF 		bl	sdStart
 107              	.LVL6:
 108              	.LBE157:
 109              	.LBE156:
 110              		.loc 1 56 0
 111 0036 FFF7FEFF 		bl	usb_start
 112              	.LVL7:
 113              		.loc 1 59 0
 114 003a FFF7FEFF 		bl	motors_init
ARM GAS  C:\Users\41786\AppData\Local\Temp\ccnio81V.s 			page 3


 115              	.LVL8:
 116              		.loc 1 62 0
 117 003e FFF7FEFF 		bl	calibrate_ir
 118              	.LVL9:
 119              		.loc 1 65 0
 120 0042 3548     		ldr	r0, .L9+32
 121 0044 FFF7FEFF 		bl	mic_start
 122              	.LVL10:
 123              		.loc 1 67 0
 124 0048 FFF7FEFF 		bl	parcours_start
 125              	.LVL11:
 126              	.LBB158:
 127              	.LBB126:
 128              	.LBB124:
 129              	.LBB118:
 130              	.LBB107:
 131              	.LBB101:
 132              	.LBB102:
 133              	.LBB103:
 134              		.loc 3 546 0
 135 004c 0025     		movs	r5, #0
 136              	.L5:
 137              	.LVL12:
 138              	.LBE103:
 139              	.LBE102:
 140              	.LBE101:
 141              	.LBE107:
 142              	.LBE118:
 143              	.LBB119:
 144              	.LBB117:
 145              	.LBB116:
 146              	.LBB115:
 147              	.LBB114:
 148              		.loc 3 546 0 is_stmt 0 discriminator 1
 149              		.syntax unified
 150              	@ 546 "../../lib/e-puck2_main-processor/ChibiOS//os/ext/CMSIS/include/core_cmFunc.h" 1
 151 004e 86F31188 		MSR basepri, r6
 152              	@ 0 "" 2
 153              	.LVL13:
 154              		.thumb
 155              		.syntax unified
 156              	.LBE114:
 157              	.LBE115:
 158              	.LBE116:
 159              		.loc 2 349 0 is_stmt 1 discriminator 1
 160 0052 FFF7FEFF 		bl	_stats_start_measure_crit_thd
 161              	.LVL14:
 162              		.loc 2 350 0 discriminator 1
 163 0056 FFF7FEFF 		bl	_dbg_check_lock
 164              	.LVL15:
 165              	.LBE117:
 166              	.LBE119:
 167              	.LBB120:
 168              	.LBB121:
 169              		.file 4 "../../lib/e-puck2_main-processor/ChibiOS//os/rt/include/chvt.h"
 170              		.loc 4 231 0 discriminator 1
 171 005a A36A     		ldr	r3, [r4, #40]
ARM GAS  C:\Users\41786\AppData\Local\Temp\ccnio81V.s 			page 4


 172              	.LBE121:
 173              	.LBE120:
 174              	.LBB122:
 175              	.LBB108:
 176              		.loc 2 360 0 discriminator 1
 177 005c FFF7FEFF 		bl	_dbg_check_unlock
 178              	.LVL16:
 179              		.loc 2 361 0 discriminator 1
 180 0060 FFF7FEFF 		bl	_stats_stop_measure_crit_thd
 181              	.LVL17:
 182              		.loc 2 367 0 discriminator 1
 183 0064 2368     		ldr	r3, [r4]
 184 0066 A342     		cmp	r3, r4
 185 0068 07D0     		beq	.L2
 186              		.loc 2 367 0 is_stmt 0
 187 006a A269     		ldr	r2, [r4, #24]
 188 006c 9B68     		ldr	r3, [r3, #8]
 189 006e 9268     		ldr	r2, [r2, #8]
 190 0070 9A42     		cmp	r2, r3
 191 0072 02D2     		bcs	.L2
 192 0074 3846     		mov	r0, r7
 193 0076 FFF7FEFF 		bl	chSysHalt
 194              	.LVL18:
 195              	.L2:
 196              	.LBB106:
 197              	.LBB105:
 198              	.LBB104:
 199              		.loc 3 546 0 is_stmt 1
 200              		.syntax unified
 201              	@ 546 "../../lib/e-puck2_main-processor/ChibiOS//os/ext/CMSIS/include/core_cmFunc.h" 1
 202 007a 85F31188 		MSR basepri, r5
 203              	@ 0 "" 2
 204              	.LVL19:
 205              		.thumb
 206              		.syntax unified
 207              	.LBE104:
 208              	.LBE105:
 209              	.LBE106:
 210              	.LBE108:
 211              	.LBE122:
 212              	.LBE124:
 213              	.LBE126:
 214              		.loc 1 74 0
 215 007e FFF7FEFF 		bl	wait_traitement_data
 216              	.LVL20:
 217              	.LBB127:
 218              	.LBB128:
 219              	.LBB129:
 220              	.LBB130:
 221              	.LBB131:
 222              	.LBB132:
 223              	.LBB133:
 224              		.loc 3 546 0
 225              		.syntax unified
 226              	@ 546 "../../lib/e-puck2_main-processor/ChibiOS//os/ext/CMSIS/include/core_cmFunc.h" 1
 227 0082 86F31188 		MSR basepri, r6
 228              	@ 0 "" 2
ARM GAS  C:\Users\41786\AppData\Local\Temp\ccnio81V.s 			page 5


 229              	.LVL21:
 230              		.thumb
 231              		.syntax unified
 232              	.LBE133:
 233              	.LBE132:
 234              	.LBE131:
 235              		.loc 2 349 0
 236 0086 FFF7FEFF 		bl	_stats_start_measure_crit_thd
 237              	.LVL22:
 238              		.loc 2 350 0
 239 008a FFF7FEFF 		bl	_dbg_check_lock
 240              	.LVL23:
 241              	.LBE130:
 242              	.LBE129:
 243              	.LBB134:
 244              	.LBB135:
 245              		.loc 4 231 0
 246 008e A36A     		ldr	r3, [r4, #40]
 247              	.LBE135:
 248              	.LBE134:
 249              	.LBB136:
 250              	.LBB137:
 251              		.loc 2 360 0
 252 0090 FFF7FEFF 		bl	_dbg_check_unlock
 253              	.LVL24:
 254              		.loc 2 361 0
 255 0094 FFF7FEFF 		bl	_stats_stop_measure_crit_thd
 256              	.LVL25:
 257              		.loc 2 367 0
 258 0098 2368     		ldr	r3, [r4]
 259 009a A342     		cmp	r3, r4
 260 009c 07D0     		beq	.L3
 261 009e A269     		ldr	r2, [r4, #24]
 262 00a0 9B68     		ldr	r3, [r3, #8]
 263 00a2 9268     		ldr	r2, [r2, #8]
 264 00a4 9A42     		cmp	r2, r3
 265 00a6 02D2     		bcs	.L3
 266 00a8 3846     		mov	r0, r7
 267 00aa FFF7FEFF 		bl	chSysHalt
 268              	.LVL26:
 269              	.L3:
 270              	.LBB138:
 271              	.LBB139:
 272              	.LBB140:
 273              		.loc 3 546 0
 274              		.syntax unified
 275              	@ 546 "../../lib/e-puck2_main-processor/ChibiOS//os/ext/CMSIS/include/core_cmFunc.h" 1
 276 00ae 85F31188 		MSR basepri, r5
 277              	@ 0 "" 2
 278              	.LVL27:
 279              		.thumb
 280              		.syntax unified
 281              	.LBE140:
 282              	.LBE139:
 283              	.LBE138:
 284              	.LBE137:
 285              	.LBE136:
ARM GAS  C:\Users\41786\AppData\Local\Temp\ccnio81V.s 			page 6


 286              	.LBE128:
 287              	.LBE127:
 288              		.loc 1 77 0
 289 00b2 FFF7FEFF 		bl	clear_leds
 290              	.LVL28:
 291              		.loc 1 78 0
 292 00b6 0020     		movs	r0, #0
 293 00b8 FFF7FEFF 		bl	set_body_led
 294              	.LVL29:
 295              		.loc 1 79 0
 296 00bc 0020     		movs	r0, #0
 297 00be FFF7FEFF 		bl	set_front_led
 298              	.LVL30:
 299              		.loc 1 81 0
 300 00c2 FFF7FEFF 		bl	traitement_data
 301              	.LVL31:
 302              	.LBB141:
 303              	.LBB142:
 304              	.LBB143:
 305              	.LBB144:
 306              	.LBB145:
 307              	.LBB146:
 308              	.LBB147:
 309              		.loc 3 546 0
 310              		.syntax unified
 311              	@ 546 "../../lib/e-puck2_main-processor/ChibiOS//os/ext/CMSIS/include/core_cmFunc.h" 1
 312 00c6 86F31188 		MSR basepri, r6
 313              	@ 0 "" 2
 314              	.LVL32:
 315              		.thumb
 316              		.syntax unified
 317              	.LBE147:
 318              	.LBE146:
 319              	.LBE145:
 320              		.loc 2 349 0
 321 00ca FFF7FEFF 		bl	_stats_start_measure_crit_thd
 322              	.LVL33:
 323              		.loc 2 350 0
 324 00ce FFF7FEFF 		bl	_dbg_check_lock
 325              	.LVL34:
 326              	.LBE144:
 327              	.LBE143:
 328              	.LBB148:
 329              	.LBB149:
 330              		.loc 4 231 0
 331 00d2 A36A     		ldr	r3, [r4, #40]
 332              	.LBE149:
 333              	.LBE148:
 334              	.LBB150:
 335              	.LBB151:
 336              		.loc 2 360 0
 337 00d4 FFF7FEFF 		bl	_dbg_check_unlock
 338              	.LVL35:
 339              		.loc 2 361 0
 340 00d8 FFF7FEFF 		bl	_stats_stop_measure_crit_thd
 341              	.LVL36:
 342              		.loc 2 367 0
ARM GAS  C:\Users\41786\AppData\Local\Temp\ccnio81V.s 			page 7


 343 00dc 2368     		ldr	r3, [r4]
 344 00de A342     		cmp	r3, r4
 345 00e0 07D0     		beq	.L4
 346 00e2 A269     		ldr	r2, [r4, #24]
 347 00e4 9B68     		ldr	r3, [r3, #8]
 348 00e6 9268     		ldr	r2, [r2, #8]
 349 00e8 9A42     		cmp	r2, r3
 350 00ea 02D2     		bcs	.L4
 351 00ec 3846     		mov	r0, r7
 352 00ee FFF7FEFF 		bl	chSysHalt
 353              	.LVL37:
 354              	.L4:
 355              	.LBB152:
 356              	.LBB153:
 357              	.LBB154:
 358              		.loc 3 546 0
 359              		.syntax unified
 360              	@ 546 "../../lib/e-puck2_main-processor/ChibiOS//os/ext/CMSIS/include/core_cmFunc.h" 1
 361 00f2 85F31188 		MSR basepri, r5
 362              	@ 0 "" 2
 363              	.LVL38:
 364              		.thumb
 365              		.syntax unified
 366 00f6 AAE7     		b	.L5
 367              	.L10:
 368              		.align	2
 369              	.L9:
 370 00f8 00000000 		.word	__stack_chk_guard
 371 00fc 00000000 		.word	ch
 372 0100 00000000 		.word	.LANCHOR4
 373 0104 00000000 		.word	.LANCHOR0
 374 0108 00000000 		.word	.LANCHOR1
 375 010c 00000000 		.word	.LANCHOR2
 376 0110 00000000 		.word	.LANCHOR3
 377 0114 00000000 		.word	SD3
 378 0118 00000000 		.word	processAudioData
 379              	.LBE154:
 380              	.LBE153:
 381              	.LBE152:
 382              	.LBE151:
 383              	.LBE150:
 384              	.LBE142:
 385              	.LBE141:
 386              	.LBE158:
 387              		.cfi_endproc
 388              	.LFE261:
 389              		.size	main, .-main
 390              		.section	.text.__stack_chk_fail,"ax",%progbits
 391              		.align	1
 392              		.p2align 4,,15
 393              		.global	__stack_chk_fail
 394              		.syntax unified
 395              		.thumb
 396              		.thumb_func
 397              		.fpu fpv4-sp-d16
 398              		.type	__stack_chk_fail, %function
 399              	__stack_chk_fail:
ARM GAS  C:\Users\41786\AppData\Local\Temp\ccnio81V.s 			page 8


 400              	.LFB262:
 401              		.loc 1 92 0
 402              		.cfi_startproc
 403              		@ args = 0, pretend = 0, frame = 8
 404              		@ frame_needed = 0, uses_anonymous_args = 0
 405 0000 00B5     		push	{lr}
 406              		.cfi_def_cfa_offset 4
 407              		.cfi_offset 14, -4
 408 0002 084B     		ldr	r3, .L16
 409 0004 83B0     		sub	sp, sp, #12
 410              		.cfi_def_cfa_offset 16
 411              		.loc 1 92 0
 412 0006 1A68     		ldr	r2, [r3]
 413 0008 0192     		str	r2, [sp, #4]
 414              		.loc 1 93 0
 415 000a 019A     		ldr	r2, [sp, #4]
 416 000c 1B68     		ldr	r3, [r3]
 417 000e 9A42     		cmp	r2, r3
 418 0010 05D1     		bne	.L15
 419 0012 0548     		ldr	r0, .L16+4
 420              		.loc 1 94 0
 421 0014 03B0     		add	sp, sp, #12
 422              		.cfi_remember_state
 423              		.cfi_def_cfa_offset 4
 424              		@ sp needed
 425 0016 5DF804EB 		ldr	lr, [sp], #4
 426              		.cfi_restore 14
 427              		.cfi_def_cfa_offset 0
 428              		.loc 1 93 0
 429 001a FFF7FEBF 		b	chSysHalt
 430              	.LVL39:
 431              	.L15:
 432              		.cfi_restore_state
 433 001e FFF7FEFF 		bl	__stack_chk_fail
 434              	.LVL40:
 435              	.L17:
 436 0022 00BF     		.align	2
 437              	.L16:
 438 0024 00000000 		.word	__stack_chk_guard
 439 0028 00000000 		.word	.LC0
 440              		.cfi_endproc
 441              	.LFE262:
 442              		.size	__stack_chk_fail, .-__stack_chk_fail
 443              		.global	__stack_chk_guard
 444              		.global	bus_condvar
 445              		.global	bus_lock
 446              		.global	bus
 447              		.section	.bss.bus,"aw",%nobits
 448              		.align	2
 449              		.set	.LANCHOR2,. + 0
 450              		.type	bus, %object
 451              		.size	bus, 12
 452              	bus:
 453 0000 00000000 		.space	12
 453      00000000 
 453      00000000 
 454              		.section	.data.__stack_chk_guard,"aw",%progbits
ARM GAS  C:\Users\41786\AppData\Local\Temp\ccnio81V.s 			page 9


 455              		.align	2
 456              		.type	__stack_chk_guard, %object
 457              		.size	__stack_chk_guard, 4
 458              	__stack_chk_guard:
 459 0000 96E3DEE2 		.word	-488709226
 460              		.section	.data.bus_condvar,"aw",%progbits
 461              		.align	2
 462              		.set	.LANCHOR0,. + 0
 463              		.type	bus_condvar, %object
 464              		.size	bus_condvar, 8
 465              	bus_condvar:
 466 0000 00000000 		.word	bus_condvar
 467 0004 00000000 		.word	bus_condvar
 468              		.section	.data.bus_lock,"aw",%progbits
 469              		.align	2
 470              		.set	.LANCHOR1,. + 0
 471              		.type	bus_lock, %object
 472              		.size	bus_lock, 20
 473              	bus_lock:
 474 0000 00000000 		.word	bus_lock
 475 0004 00000000 		.word	bus_lock
 476 0008 00000000 		.word	0
 477 000c 00000000 		.word	0
 478 0010 00000000 		.word	0
 479              		.section	.data.ser_cfg.12913,"aw",%progbits
 480              		.align	2
 481              		.set	.LANCHOR3,. + 0
 482              		.type	ser_cfg.12913, %object
 483              		.size	ser_cfg.12913, 12
 484              	ser_cfg.12913:
 485 0000 00C20100 		.word	115200
 486 0004 0000     		.short	0
 487 0006 0000     		.short	0
 488 0008 0000     		.short	0
 489 000a 0000     		.space	2
 490              		.section	.rodata.__func__.9289,"a",%progbits
 491              		.align	2
 492              		.set	.LANCHOR4,. + 0
 493              		.type	__func__.9289, %object
 494              		.size	__func__.9289, 12
 495              	__func__.9289:
 496 0000 63685379 		.ascii	"chSysUnlock\000"
 496      73556E6C 
 496      6F636B00 
 497              		.section	.rodata.__stack_chk_fail.str1.4,"aMS",%progbits,1
 498              		.align	2
 499              	.LC0:
 500 0000 53746163 		.ascii	"Stack smashing detected\000"
 500      6B20736D 
 500      61736869 
 500      6E672064 
 500      65746563 
 501              		.text
 502              	.Letext0:
 503              		.file 5 "c:\\users\\41786\\desktop\\epfl\\microinfo\\eclipse_e-puck2\\tools\\gcc-arm-none-eabi-7-2
 504              		.file 6 "c:\\users\\41786\\desktop\\epfl\\microinfo\\eclipse_e-puck2\\tools\\gcc-arm-none-eabi-7-2
 505              		.file 7 "c:\\users\\41786\\desktop\\epfl\\microinfo\\eclipse_e-puck2\\tools\\gcc-arm-none-eabi-7-2
ARM GAS  C:\Users\41786\AppData\Local\Temp\ccnio81V.s 			page 10


 506              		.file 8 "c:\\users\\41786\\desktop\\epfl\\microinfo\\eclipse_e-puck2\\tools\\gcc-arm-none-eabi-7-2
 507              		.file 9 "c:\\users\\41786\\desktop\\epfl\\microinfo\\eclipse_e-puck2\\tools\\gcc-arm-none-eabi-7-2
 508              		.file 10 "c:\\users\\41786\\desktop\\epfl\\microinfo\\eclipse_e-puck2\\tools\\gcc-arm-none-eabi-7-
 509              		.file 11 "c:\\users\\41786\\desktop\\epfl\\microinfo\\eclipse_e-puck2\\tools\\gcc-arm-none-eabi-7-
 510              		.file 12 "c:\\users\\41786\\desktop\\epfl\\microinfo\\eclipse_e-puck2\\tools\\gcc-arm-none-eabi-7-
 511              		.file 13 "../../lib/e-puck2_main-processor/ChibiOS//os/rt/ports/ARMCMx/compilers/GCC/chtypes.h"
 512              		.file 14 "../../lib/e-puck2_main-processor/ChibiOS//os/rt/include/chsystypes.h"
 513              		.file 15 "../../lib/e-puck2_main-processor/ChibiOS//os/rt/include/chschd.h"
 514              		.file 16 "../../lib/e-puck2_main-processor/ChibiOS//os/ext/CMSIS/include/core_cm4.h"
 515              		.file 17 "../../lib/e-puck2_main-processor/ChibiOS//os/ext/CMSIS/ST/system_stm32f4xx.h"
 516              		.file 18 "../../lib/e-puck2_main-processor/ChibiOS//os/ext/CMSIS/ST/stm32f407xx.h"
 517              		.file 19 "../../lib/e-puck2_main-processor/ChibiOS//os/rt/ports/ARMCMx/chcore.h"
 518              		.file 20 "../../lib/e-puck2_main-processor/ChibiOS//os/rt/ports/ARMCMx/chcore_v7m.h"
 519              		.file 21 "../../lib/e-puck2_main-processor/ChibiOS//os/rt/include/chdebug.h"
 520              		.file 22 "../../lib/e-puck2_main-processor/ChibiOS//os/rt/include/chtm.h"
 521              		.file 23 "../../lib/e-puck2_main-processor/ChibiOS//os/rt/include/chstats.h"
 522              		.file 24 "../../lib/e-puck2_main-processor/ChibiOS//os/rt/include/chsem.h"
 523              		.file 25 "../../lib/e-puck2_main-processor/ChibiOS//os/rt/include/chmtx.h"
 524              		.file 26 "../../lib/e-puck2_main-processor/ChibiOS//os/rt/include/chregistry.h"
 525              		.file 27 "../../lib/e-puck2_main-processor/ChibiOS//os/rt/include/chcond.h"
 526              		.file 28 "../../lib/e-puck2_main-processor/ChibiOS//os/rt/include/chevents.h"
 527              		.file 29 "../../lib/e-puck2_main-processor/ChibiOS//os/rt/include/chqueues.h"
 528              		.file 30 "../../lib/e-puck2_main-processor/ChibiOS//os/hal/ports/STM32/STM32F4xx/stm32_dma.h"
 529              		.file 31 "../../lib/e-puck2_main-processor/ChibiOS//os/hal/include/hal_ioblock.h"
 530              		.file 32 "../../lib/e-puck2_main-processor/ChibiOS//os/hal/ports/STM32/LLD/GPIOv2/pal_lld.h"
 531              		.file 33 "../../lib/e-puck2_main-processor/ChibiOS//os/hal/include/adc.h"
 532              		.file 34 "../../lib/e-puck2_main-processor/ChibiOS//os/hal/ports/STM32/STM32F4xx/adc_lld.h"
 533              		.file 35 "../../lib/e-puck2_main-processor/ChibiOS//os/hal/include/can.h"
 534              		.file 36 "../../lib/e-puck2_main-processor/ChibiOS//os/hal/ports/STM32/LLD/can_lld.h"
 535              		.file 37 "../../lib/e-puck2_main-processor/ChibiOS//os/hal/include/dac.h"
 536              		.file 38 "../../lib/e-puck2_main-processor/ChibiOS//os/hal/ports/STM32/LLD/DACv1/dac_lld.h"
 537              		.file 39 "../../lib/e-puck2_main-processor/ChibiOS//os/hal/include/ext.h"
 538              		.file 40 "../../lib/e-puck2_main-processor/ChibiOS//os/hal/ports/STM32/LLD/ext_lld.h"
 539              		.file 41 "../../lib/e-puck2_main-processor/ChibiOS//os/hal/include/gpt.h"
 540              		.file 42 "../../lib/e-puck2_main-processor/ChibiOS//os/hal/ports/STM32/LLD/TIMv1/gpt_lld.h"
 541              		.file 43 "../../lib/e-puck2_main-processor/ChibiOS//os/hal/ports/STM32/LLD/TIMv1/stm32_tim.h"
 542              		.file 44 "../../lib/e-puck2_main-processor/ChibiOS//os/hal/include/i2c.h"
 543              		.file 45 "../../lib/e-puck2_main-processor/ChibiOS//os/hal/ports/STM32/LLD/I2Cv1/i2c_lld.h"
 544              		.file 46 "../../lib/e-puck2_main-processor/ChibiOS//os/hal/include/i2s.h"
 545              		.file 47 "../../lib/e-puck2_main-processor/ChibiOS//os/hal/ports/STM32/LLD/SPIv1/i2s_lld.h"
 546              		.file 48 "../../lib/e-puck2_main-processor/ChibiOS//os/hal/include/pwm.h"
 547              		.file 49 "../../lib/e-puck2_main-processor/ChibiOS//os/hal/ports/STM32/LLD/TIMv1/pwm_lld.h"
 548              		.file 50 "../../lib/e-puck2_main-processor/ChibiOS//os/hal/include/serial.h"
 549              		.file 51 "../../lib/e-puck2_main-processor/ChibiOS//os/hal/ports/STM32/LLD/USARTv1/serial_lld.h"
 550              		.file 52 "../../lib/e-puck2_main-processor/ChibiOS//os/hal/include/sdc.h"
 551              		.file 53 "../../lib/e-puck2_main-processor/ChibiOS//os/hal/ports/STM32/LLD/sdc_lld.h"
 552              		.file 54 "../../lib/e-puck2_main-processor/ChibiOS//os/hal/include/spi.h"
 553              		.file 55 "../../lib/e-puck2_main-processor/ChibiOS//os/hal/ports/STM32/LLD/SPIv1/spi_lld.h"
 554              		.file 56 "../../lib/e-puck2_main-processor/ChibiOS//os/hal/include/usb.h"
 555              		.file 57 "../../lib/e-puck2_main-processor/ChibiOS//os/hal/ports/STM32/LLD/OTGv1/usb_lld.h"
 556              		.file 58 "../../lib/e-puck2_main-processor/ChibiOS//os/hal/ports/STM32/LLD/OTGv1/stm32_otg.h"
 557              		.file 59 "../../lib/e-puck2_main-processor/ChibiOS//os/hal/include/serial_usb.h"
 558              		.file 60 "../../lib/e-puck2_main-processor/ChibiOS_ext/os/hal/include/../ports/STM32/STM32F4xx/dcm
 559              		.file 61 "c:\\users\\41786\\desktop\\epfl\\microinfo\\eclipse_e-puck2\\tools\\gcc-arm-none-eabi-7-
 560              		.file 62 "../../lib/e-puck2_main-processor/src/msgbus/messagebus.h"
 561              		.file 63 "../../lib/e-puck2_main-processor/src/parameter/parameter.h"
 562              		.file 64 "./main.h"
ARM GAS  C:\Users\41786\AppData\Local\Temp\ccnio81V.s 			page 11


 563              		.file 65 "../../lib/e-puck2_main-processor/src/usbcfg.h"
 564              		.file 66 "./traitement_son.h"
 565              		.file 67 "../../lib/e-puck2_main-processor/src/leds.h"
 566              		.file 68 "../../lib/e-puck2_main-processor/ChibiOS//os/hal/include/hal.h"
 567              		.file 69 "../../lib/e-puck2_main-processor/src/memory_protection.h"
 568              		.file 70 "../../lib/e-puck2_main-processor/src/sensors/proximity.h"
 569              		.file 71 "../../lib/e-puck2_main-processor/src/spi_comm.h"
 570              		.file 72 "../../lib/e-puck2_main-processor/src/motors.h"
 571              		.file 73 "../../lib/e-puck2_main-processor/src/audio/microphone.h"
 572              		.file 74 "parcours.h"