ARM GAS  C:\Users\guill\AppData\Local\Temp\ccUE1NwH.s 			page 1


   1              		.cpu cortex-m4
   2              		.eabi_attribute 27, 1
   3              		.eabi_attribute 28, 1
   4              		.eabi_attribute 20, 1
   5              		.eabi_attribute 21, 1
   6              		.eabi_attribute 23, 3
   7              		.eabi_attribute 24, 1
   8              		.eabi_attribute 25, 1
   9              		.eabi_attribute 26, 1
  10              		.eabi_attribute 30, 2
  11              		.eabi_attribute 34, 1
  12              		.eabi_attribute 18, 4
  13              		.file	"parcours.c"
  14              		.text
  15              	.Ltext0:
  16              		.cfi_sections	.debug_frame
  17              		.section	.text.reponse_sonore,"ax",%progbits
  18              		.align	1
  19              		.p2align 4,,15
  20              		.global	reponse_sonore
  21              		.syntax unified
  22              		.thumb
  23              		.thumb_func
  24              		.fpu fpv4-sp-d16
  25              		.type	reponse_sonore, %function
  26              	reponse_sonore:
  27              	.LFB257:
  28              		.file 1 "parcours.c"
  29              		.loc 1 32 0
  30              		.cfi_startproc
  31              		@ args = 0, pretend = 0, frame = 8
  32              		@ frame_needed = 0, uses_anonymous_args = 0
  33 0000 30B5     		push	{r4, r5, lr}
  34              		.cfi_def_cfa_offset 12
  35              		.cfi_offset 4, -12
  36              		.cfi_offset 5, -8
  37              		.cfi_offset 14, -4
  38 0002 2DED028B 		vpush.64	{d8}
  39              		.cfi_def_cfa_offset 20
  40              		.cfi_offset 80, -20
  41              		.cfi_offset 81, -16
  42 0006 5C4C     		ldr	r4, .L38
  43 0008 83B0     		sub	sp, sp, #12
  44              		.cfi_def_cfa_offset 32
  45              		.loc 1 32 0
  46 000a 2368     		ldr	r3, [r4]
  47 000c 0193     		str	r3, [sp, #4]
  48              		.loc 1 39 0
  49 000e FFF7FEFF 		bl	get_angle
  50              	.LVL0:
  51 0012 5A4B     		ldr	r3, .L38+4
  52 0014 F0EE408A 		vmov.f32	s17, s0
  53 0018 83ED000A 		vstr.32	s0, [r3]
  54              		.loc 1 42 0
  55 001c FFF7FEFF 		bl	cosf
  56              	.LVL1:
  57 0020 B0EE408A 		vmov.f32	s16, s0
ARM GAS  C:\Users\guill\AppData\Local\Temp\ccUE1NwH.s 			page 2


  58              	.LVL2:
  59              		.loc 1 43 0
  60 0024 B0EE680A 		vmov.f32	s0, s17
  61              	.LVL3:
  62 0028 FFF7FEFF 		bl	sinf
  63              	.LVL4:
  64              		.loc 1 46 0
  65 002c 544B     		ldr	r3, .L38+8
  66 002e 1B78     		ldrb	r3, [r3]	@ zero_extendqisi2
  67              		.loc 1 43 0
  68 0030 F0EE408A 		vmov.f32	s17, s0
  69              	.LVL5:
  70              		.loc 1 46 0
  71 0034 002B     		cmp	r3, #0
  72 0036 4FD0     		beq	.L2
  73              		.loc 1 52 0
  74 0038 524D     		ldr	r5, .L38+12
  75              		.loc 1 48 0
  76 003a 534A     		ldr	r2, .L38+16
  77              		.loc 1 52 0
  78 003c 2B78     		ldrb	r3, [r5]	@ zero_extendqisi2
  79              		.loc 1 48 0
  80 003e 0021     		movs	r1, #0
  81 0040 1170     		strb	r1, [r2]
  82              		.loc 1 52 0
  83 0042 002B     		cmp	r3, #0
  84 0044 40F08380 		bne	.L35
  85              	.LVL6:
  86              	.L3:
  87              		.loc 1 58 0
  88 0048 504A     		ldr	r2, .L38+20
  89 004a B2F90030 		ldrsh	r3, [r2]
  90 004e 07EE903A 		vmov	s15, r3	@ int
  91 0052 B7EE007A 		vmov.f32	s14, #1.0e+0
  92 0056 F8EEE77A 		vcvt.f32.s32	s15, s15
  93 005a 37EE487A 		vsub.f32	s14, s14, s16
  94 005e 77EE877A 		vadd.f32	s15, s15, s14
  95 0062 FDEEE77A 		vcvt.s32.f32	s15, s15
  96 0066 17EE903A 		vmov	r3, s15	@ int
  97 006a 1BB2     		sxth	r3, r3
  98              		.loc 1 59 0
  99 006c 83EAE371 		eor	r1, r3, r3, asr #31
 100 0070 A1EBE371 		sub	r1, r1, r3, asr #31
 101 0074 4229     		cmp	r1, #66
 102 0076 65DC     		bgt	.L5
 103 0078 03EB8301 		add	r1, r3, r3, lsl #2
 104 007c 07EE901A 		vmov	s15, r1	@ int
 105 0080 F8EEE77A 		vcvt.f32.s32	s15, s15
 106              		.loc 1 58 0
 107 0084 1380     		strh	r3, [r2]	@ movhi
 108              	.L6:
 109              		.loc 1 60 0
 110 0086 9FED426A 		vldr.32	s12, .L38+24
 111 008a DFED426A 		vldr.32	s13, .L38+28
 112 008e E7EE067A 		vfma.f32	s15, s14, s12
 113              	.LVL7:
 114              	.L33:
ARM GAS  C:\Users\guill\AppData\Local\Temp\ccUE1NwH.s 			page 3


 115              		.loc 1 88 0
 116 0092 4148     		ldr	r0, .L38+32
 117              		.loc 1 89 0
 118 0094 4149     		ldr	r1, .L38+36
 119              		.loc 1 85 0
 120 0096 B0EE677A 		vmov.f32	s14, s15
 121 009a A8EE267A 		vfma.f32	s14, s16, s13
 122              		.loc 1 86 0
 123 009e D8EE267A 		vfnms.f32	s15, s16, s13
 124              		.loc 1 85 0
 125 00a2 BDEEC77A 		vcvt.s32.f32	s14, s14
 126              		.loc 1 86 0
 127 00a6 FDEEE77A 		vcvt.s32.f32	s15, s15
 128              		.loc 1 85 0
 129 00aa 17EE103A 		vmov	r3, s14	@ int
 130 00ae 1AB2     		sxth	r2, r3
 131              	.LVL8:
 132              		.loc 1 86 0
 133 00b0 17EE903A 		vmov	r3, s15	@ int
 134              		.loc 1 87 0
 135 00b4 F5EEC08A 		vcmpe.f32	s17, #0
 136 00b8 F1EE10FA 		vmrs	APSR_nzcv, FPSCR
 137              		.loc 1 86 0
 138 00bc 1BB2     		sxth	r3, r3
 139              	.LVL9:
 140              		.loc 1 88 0
 141 00be C7BF     		ittee	gt
 142 00c0 0280     		strhgt	r2, [r0]	@ movhi
 143              		.loc 1 89 0
 144 00c2 0B80     		strhgt	r3, [r1]	@ movhi
 145              		.loc 1 92 0
 146 00c4 0380     		strhle	r3, [r0]	@ movhi
 147              		.loc 1 93 0
 148 00c6 0A80     		strhle	r2, [r1]	@ movhi
 149              	.LVL10:
 150              	.L1:
 151              		.loc 1 103 0
 152 00c8 019A     		ldr	r2, [sp, #4]
 153 00ca 2368     		ldr	r3, [r4]
 154 00cc 9A42     		cmp	r2, r3
 155 00ce 50D1     		bne	.L36
 156 00d0 03B0     		add	sp, sp, #12
 157              		.cfi_remember_state
 158              		.cfi_def_cfa_offset 20
 159              		@ sp needed
 160 00d2 BDEC028B 		vldm	sp!, {d8}
 161              		.cfi_restore 80
 162              		.cfi_restore 81
 163              		.cfi_def_cfa_offset 12
 164 00d6 30BD     		pop	{r4, r5, pc}
 165              	.LVL11:
 166              	.L2:
 167              		.cfi_restore_state
 168              		.loc 1 74 0
 169 00d8 2B4B     		ldr	r3, .L38+16
 170 00da 1B78     		ldrb	r3, [r3]	@ zero_extendqisi2
 171 00dc 5BB3     		cbz	r3, .L9
ARM GAS  C:\Users\guill\AppData\Local\Temp\ccUE1NwH.s 			page 4


 172              		.loc 1 77 0
 173 00de 294D     		ldr	r5, .L38+12
 174 00e0 2B78     		ldrb	r3, [r5]	@ zero_extendqisi2
 175 00e2 002B     		cmp	r3, #0
 176 00e4 40D1     		bne	.L37
 177              	.LVL12:
 178              	.L10:
 179              		.loc 1 83 0
 180 00e6 294A     		ldr	r2, .L38+20
 181 00e8 B2F90030 		ldrsh	r3, [r2]
 182 00ec 07EE903A 		vmov	s15, r3	@ int
 183 00f0 BFEE007A 		vmov.f32	s14, #-1.0e+0
 184 00f4 F8EEE77A 		vcvt.f32.s32	s15, s15
 185 00f8 37EE487A 		vsub.f32	s14, s14, s16
 186 00fc 77EE877A 		vadd.f32	s15, s15, s14
 187 0100 FDEEE77A 		vcvt.s32.f32	s15, s15
 188 0104 17EE903A 		vmov	r3, s15	@ int
 189 0108 1BB2     		sxth	r3, r3
 190              		.loc 1 84 0
 191 010a 83EAE371 		eor	r1, r3, r3, asr #31
 192 010e A1EBE371 		sub	r1, r1, r3, asr #31
 193 0112 4229     		cmp	r1, #66
 194 0114 23DC     		bgt	.L12
 195 0116 03EB8301 		add	r1, r3, r3, lsl #2
 196 011a 07EE901A 		vmov	s15, r1	@ int
 197 011e F8EEE77A 		vcvt.f32.s32	s15, s15
 198              		.loc 1 83 0
 199 0122 1380     		strh	r3, [r2]	@ movhi
 200              	.L13:
 201              		.loc 1 85 0
 202 0124 9FED1A6A 		vldr.32	s12, .L38+24
 203 0128 DFED1A6A 		vldr.32	s13, .L38+28
 204 012c E7EE067A 		vfma.f32	s15, s14, s12
 205 0130 B1EE488A 		vneg.f32	s16, s16
 206              	.LVL13:
 207 0134 ADE7     		b	.L33
 208              	.LVL14:
 209              	.L9:
 210              		.loc 1 99 0
 211 0136 1348     		ldr	r0, .L38+12
 212              		.loc 1 100 0
 213 0138 1749     		ldr	r1, .L38+32
 214              		.loc 1 101 0
 215 013a 184A     		ldr	r2, .L38+36
 216              		.loc 1 99 0
 217 013c 0370     		strb	r3, [r0]
 218              		.loc 1 100 0
 219 013e 0B80     		strh	r3, [r1]	@ movhi
 220              		.loc 1 101 0
 221 0140 1380     		strh	r3, [r2]	@ movhi
 222              		.loc 1 103 0
 223 0142 C1E7     		b	.L1
 224              	.LVL15:
 225              	.L5:
 226              		.loc 1 59 0 discriminator 1
 227 0144 4223     		movs	r3, #66
 228 0146 DFED167A 		vldr.32	s15, .L38+40
ARM GAS  C:\Users\guill\AppData\Local\Temp\ccUE1NwH.s 			page 5


 229 014a 1380     		strh	r3, [r2]	@ movhi
 230 014c 9BE7     		b	.L6
 231              	.LVL16:
 232              	.L35:
 233              		.loc 1 52 0 discriminator 1
 234 014e FFF7FEFF 		bl	get_animations_commande_validee
 235              	.LVL17:
 236 0152 0028     		cmp	r0, #0
 237 0154 3FF478AF 		beq	.L3
 238              	.L11:
 239              		.loc 1 54 0
 240 0158 0023     		movs	r3, #0
 241 015a 2B70     		strb	r3, [r5]
 242 015c B4E7     		b	.L1
 243              	.L12:
 244              		.loc 1 84 0 discriminator 1
 245 015e 4223     		movs	r3, #66
 246 0160 DFED0F7A 		vldr.32	s15, .L38+40
 247 0164 1380     		strh	r3, [r2]	@ movhi
 248 0166 DDE7     		b	.L13
 249              	.LVL18:
 250              	.L37:
 251              		.loc 1 77 0 discriminator 1
 252 0168 FFF7FEFF 		bl	get_animations_commande_validee
 253              	.LVL19:
 254 016c 0028     		cmp	r0, #0
 255 016e BAD0     		beq	.L10
 256 0170 F2E7     		b	.L11
 257              	.LVL20:
 258              	.L36:
 259              		.loc 1 103 0
 260 0172 FFF7FEFF 		bl	__stack_chk_fail
 261              	.LVL21:
 262              	.L39:
 263 0176 00BF     		.align	2
 264              	.L38:
 265 0178 00000000 		.word	__stack_chk_guard
 266 017c 00000000 		.word	.LANCHOR0
 267 0180 00000000 		.word	.LANCHOR1
 268 0184 00000000 		.word	.LANCHOR3
 269 0188 00000000 		.word	.LANCHOR2
 270 018c 00000000 		.word	.LANCHOR4
 271 0190 0000C843 		.word	1137180672
 272 0194 00004844 		.word	1145569280
 273 0198 00000000 		.word	.LANCHOR5
 274 019c 00000000 		.word	.LANCHOR6
 275 01a0 0000A543 		.word	1134886912
 276              		.cfi_endproc
 277              	.LFE257:
 278              		.size	reponse_sonore, .-reponse_sonore
 279              		.section	.text.parcours_en_infini,"ax",%progbits
 280              		.align	1
 281              		.p2align 4,,15
 282              		.global	parcours_en_infini
 283              		.syntax unified
 284              		.thumb
 285              		.thumb_func
ARM GAS  C:\Users\guill\AppData\Local\Temp\ccUE1NwH.s 			page 6


 286              		.fpu fpv4-sp-d16
 287              		.type	parcours_en_infini, %function
 288              	parcours_en_infini:
 289              	.LFB258:
 290              		.loc 1 106 0
 291              		.cfi_startproc
 292              		@ args = 0, pretend = 0, frame = 8
 293              		@ frame_needed = 0, uses_anonymous_args = 0
 294 0000 30B5     		push	{r4, r5, lr}
 295              		.cfi_def_cfa_offset 12
 296              		.cfi_offset 4, -12
 297              		.cfi_offset 5, -8
 298              		.cfi_offset 14, -4
 299 0002 344D     		ldr	r5, .L62
 300 0004 83B0     		sub	sp, sp, #12
 301              		.cfi_def_cfa_offset 24
 302              		.loc 1 106 0
 303 0006 2B68     		ldr	r3, [r5]
 304 0008 0193     		str	r3, [sp, #4]
 305              		.loc 1 107 0
 306 000a FFF7FEFF 		bl	right_motor_get_pos
 307              	.LVL22:
 308 000e 0446     		mov	r4, r0
 309              	.LVL23:
 310              		.loc 1 108 0
 311 0010 FFF7FEFF 		bl	left_motor_get_pos
 312              	.LVL24:
 313              		.loc 1 112 0
 314 0014 304A     		ldr	r2, .L62+4
 315 0016 1378     		ldrb	r3, [r2]	@ zero_extendqisi2
 316 0018 043B     		subs	r3, r3, #4
 317 001a 032B     		cmp	r3, #3
 318 001c 14D8     		bhi	.L40
 319 001e DFE803F0 		tbb	[pc, r3]
 320              	.L43:
 321 0022 35       		.byte	(.L42-.L43)/2
 322 0023 23       		.byte	(.L44-.L43)/2
 323 0024 19       		.byte	(.L45-.L43)/2
 324 0025 02       		.byte	(.L46-.L43)/2
 325              		.p2align 1
 326              	.L46:
 327              		.loc 1 154 0
 328 0026 A0F24460 		subw	r0, r0, #1604
 329              	.LVL25:
 330 002a 1228     		cmp	r0, #18
 331 002c 47D9     		bls	.L55
 332              		.loc 1 155 0 discriminator 1
 333 002e 6FF44F63 		mvn	r3, #3312
 334 0032 1C44     		add	r4, r4, r3
 335              	.LVL26:
 336              		.loc 1 154 0 discriminator 1
 337 0034 122C     		cmp	r4, #18
 338 0036 42D9     		bls	.L55
 339              		.loc 1 162 0
 340 0038 2849     		ldr	r1, .L62+8
 341              		.loc 1 163 0
 342 003a 294B     		ldr	r3, .L62+12
ARM GAS  C:\Users\guill\AppData\Local\Temp\ccUE1NwH.s 			page 7


 343              		.loc 1 162 0
 344 003c 40F20130 		movw	r0, #769
 345              	.LVL27:
 346              		.loc 1 163 0
 347 0040 40F27512 		movw	r2, #373
 348              		.loc 1 162 0
 349 0044 0880     		strh	r0, [r1]	@ movhi
 350              		.loc 1 163 0
 351 0046 1A80     		strh	r2, [r3]	@ movhi
 352              	.LVL28:
 353              	.L40:
 354              		.loc 1 166 0
 355 0048 019A     		ldr	r2, [sp, #4]
 356 004a 2B68     		ldr	r3, [r5]
 357 004c 9A42     		cmp	r2, r3
 358 004e 3FD1     		bne	.L60
 359 0050 03B0     		add	sp, sp, #12
 360              		.cfi_remember_state
 361              		.cfi_def_cfa_offset 12
 362              		@ sp needed
 363 0052 30BD     		pop	{r4, r5, pc}
 364              	.LVL29:
 365              	.L45:
 366              		.cfi_restore_state
 367              		.loc 1 141 0
 368 0054 A4F6FD04 		subw	r4, r4, #2301
 369              	.LVL30:
 370 0058 122C     		cmp	r4, #18
 371 005a 03D9     		bls	.L53
 372              		.loc 1 142 0 discriminator 1
 373 005c A0F6FD00 		subw	r0, r0, #2301
 374              	.LVL31:
 375              		.loc 1 141 0 discriminator 1
 376 0060 1228     		cmp	r0, #18
 377 0062 2ED8     		bhi	.L48
 378              	.LVL32:
 379              	.L53:
 380              		.loc 1 144 0
 381 0064 0723     		movs	r3, #7
 382 0066 1AE0     		b	.L61
 383              	.LVL33:
 384              	.L44:
 385              		.loc 1 128 0
 386 0068 A4F24464 		subw	r4, r4, #1604
 387              	.LVL34:
 388 006c 122C     		cmp	r4, #18
 389 006e 24D9     		bls	.L50
 390              		.loc 1 129 0 discriminator 1
 391 0070 6FF44F61 		mvn	r1, #3312
 392 0074 0844     		add	r0, r0, r1
 393              	.LVL35:
 394              		.loc 1 128 0 discriminator 1
 395 0076 1228     		cmp	r0, #18
 396 0078 1FD9     		bls	.L50
 397              		.loc 1 136 0
 398 007a 1849     		ldr	r1, .L62+8
 399              		.loc 1 137 0
ARM GAS  C:\Users\guill\AppData\Local\Temp\ccUE1NwH.s 			page 8


 400 007c 184B     		ldr	r3, .L62+12
 401              		.loc 1 136 0
 402 007e 40F27510 		movw	r0, #373
 403              	.LVL36:
 404              		.loc 1 137 0
 405 0082 40F20132 		movw	r2, #769
 406              		.loc 1 136 0
 407 0086 0880     		strh	r0, [r1]	@ movhi
 408              		.loc 1 137 0
 409 0088 1A80     		strh	r2, [r3]	@ movhi
 410              		.loc 1 138 0
 411 008a DDE7     		b	.L40
 412              	.LVL37:
 413              	.L42:
 414              		.loc 1 115 0
 415 008c A4F6FD04 		subw	r4, r4, #2301
 416              	.LVL38:
 417 0090 122C     		cmp	r4, #18
 418 0092 03D9     		bls	.L47
 419              		.loc 1 116 0 discriminator 1
 420 0094 A0F6FD00 		subw	r0, r0, #2301
 421              	.LVL39:
 422              		.loc 1 115 0 discriminator 1
 423 0098 1228     		cmp	r0, #18
 424 009a 12D8     		bhi	.L48
 425              	.LVL40:
 426              	.L47:
 427              		.loc 1 118 0
 428 009c 0523     		movs	r3, #5
 429              	.LVL41:
 430              	.L61:
 431              		.loc 1 158 0
 432 009e 0020     		movs	r0, #0
 433              		.loc 1 157 0
 434 00a0 1370     		strb	r3, [r2]
 435              		.loc 1 158 0
 436 00a2 FFF7FEFF 		bl	right_motor_set_pos
 437              	.LVL42:
 438              		.loc 1 159 0
 439 00a6 019A     		ldr	r2, [sp, #4]
 440 00a8 2B68     		ldr	r3, [r5]
 441 00aa 9A42     		cmp	r2, r3
 442 00ac 10D1     		bne	.L60
 443 00ae 0020     		movs	r0, #0
 444              		.loc 1 166 0
 445 00b0 03B0     		add	sp, sp, #12
 446              		.cfi_remember_state
 447              		.cfi_def_cfa_offset 12
 448              		@ sp needed
 449 00b2 BDE83040 		pop	{r4, r5, lr}
 450              		.cfi_restore 14
 451              		.cfi_restore 5
 452              		.cfi_restore 4
 453              		.cfi_def_cfa_offset 0
 454              		.loc 1 159 0
 455 00b6 FFF7FEBF 		b	left_motor_set_pos
 456              	.LVL43:
ARM GAS  C:\Users\guill\AppData\Local\Temp\ccUE1NwH.s 			page 9


 457              	.L50:
 458              		.cfi_restore_state
 459              		.loc 1 131 0
 460 00ba 0623     		movs	r3, #6
 461 00bc EFE7     		b	.L61
 462              	.LVL44:
 463              	.L55:
 464              		.loc 1 157 0
 465 00be 0423     		movs	r3, #4
 466 00c0 EDE7     		b	.L61
 467              	.LVL45:
 468              	.L48:
 469              		.loc 1 123 0
 470 00c2 0649     		ldr	r1, .L62+8
 471              		.loc 1 124 0
 472 00c4 064A     		ldr	r2, .L62+12
 473              		.loc 1 123 0
 474 00c6 40F20133 		movw	r3, #769
 475 00ca 0B80     		strh	r3, [r1]	@ movhi
 476              		.loc 1 124 0
 477 00cc 1380     		strh	r3, [r2]	@ movhi
 478              		.loc 1 125 0
 479 00ce BBE7     		b	.L40
 480              	.L60:
 481              		.loc 1 166 0
 482 00d0 FFF7FEFF 		bl	__stack_chk_fail
 483              	.LVL46:
 484              	.L63:
 485              		.align	2
 486              	.L62:
 487 00d4 00000000 		.word	__stack_chk_guard
 488 00d8 00000000 		.word	.LANCHOR7
 489 00dc 00000000 		.word	.LANCHOR5
 490 00e0 00000000 		.word	.LANCHOR6
 491              		.cfi_endproc
 492              	.LFE258:
 493              		.size	parcours_en_infini, .-parcours_en_infini
 494              		.section	.text.pi_controller,"ax",%progbits
 495              		.align	1
 496              		.p2align 4,,15
 497              		.global	pi_controller
 498              		.syntax unified
 499              		.thumb
 500              		.thumb_func
 501              		.fpu fpv4-sp-d16
 502              		.type	pi_controller, %function
 503              	pi_controller:
 504              	.LFB259:
 505              		.loc 1 170 0
 506              		.cfi_startproc
 507              		@ args = 0, pretend = 0, frame = 8
 508              		@ frame_needed = 0, uses_anonymous_args = 0
 509              	.LVL47:
 510              		.loc 1 175 0
 511 0000 0029     		cmp	r1, #0
 512 0002 B8BF     		it	lt
 513 0004 4942     		rsblt	r1, r1, #0
ARM GAS  C:\Users\guill\AppData\Local\Temp\ccUE1NwH.s 			page 10


 514              	.LVL48:
 515 0006 0028     		cmp	r0, #0
 516 0008 B8BF     		it	lt
 517 000a 4042     		rsblt	r0, r0, #0
 518              	.LVL49:
 519              		.loc 1 170 0
 520 000c 00B5     		push	{lr}
 521              		.cfi_def_cfa_offset 4
 522              		.cfi_offset 14, -4
 523              		.loc 1 175 0
 524 000e 091A     		subs	r1, r1, r0
 525 0010 07EE901A 		vmov	s15, r1	@ int
 526              		.loc 1 177 0
 527 0014 9FED2A7A 		vldr.32	s14, .L80
 528              		.loc 1 170 0
 529 0018 2A4B     		ldr	r3, .L80+4
 530              		.loc 1 175 0
 531 001a F8EEE77A 		vcvt.f32.s32	s15, s15
 532              		.loc 1 170 0
 533 001e 83B0     		sub	sp, sp, #12
 534              		.cfi_def_cfa_offset 16
 535              		.loc 1 177 0
 536 0020 F4EEC77A 		vcmpe.f32	s15, s14
 537              		.loc 1 170 0
 538 0024 1A68     		ldr	r2, [r3]
 539 0026 0192     		str	r2, [sp, #4]
 540              	.LVL50:
 541              		.loc 1 177 0
 542 0028 F1EE10FA 		vmrs	APSR_nzcv, FPSCR
 543 002c 0BDC     		bgt	.L71
 544              		.loc 1 182 0
 545 002e 9FED267A 		vldr.32	s14, .L80+8
 546 0032 F4EEC77A 		vcmpe.f32	s15, s14
 547 0036 F1EE10FA 		vmrs	APSR_nzcv, FPSCR
 548 003a 2DD5     		bpl	.L76
 549              		.loc 1 184 0
 550 003c F0EE477A 		vmov.f32	s15, s14
 551              	.LVL51:
 552 0040 9FED227A 		vldr.32	s14, .L80+12
 553 0044 03E0     		b	.L65
 554              	.LVL52:
 555              	.L71:
 556              		.loc 1 179 0
 557 0046 F0EE477A 		vmov.f32	s15, s14
 558              	.LVL53:
 559 004a 9FED217A 		vldr.32	s14, .L80+16
 560              	.L65:
 561              	.LVL54:
 562              		.loc 1 186 0
 563 004e 214A     		ldr	r2, .L80+20
 564              		.loc 1 188 0
 565 0050 DFED216A 		vldr.32	s13, .L80+24
 566              		.loc 1 186 0
 567 0054 92ED006A 		vldr.32	s12, [r2]
 568 0058 77EE867A 		vadd.f32	s15, s15, s12
 569              	.LVL55:
 570              		.loc 1 188 0
ARM GAS  C:\Users\guill\AppData\Local\Temp\ccUE1NwH.s 			page 11


 571 005c F4EEE67A 		vcmpe.f32	s15, s13
 572 0060 F1EE10FA 		vmrs	APSR_nzcv, FPSCR
 573 0064 24DC     		bgt	.L77
 574              		.loc 1 190 0
 575 0066 DFED1D6A 		vldr.32	s13, .L80+28
 576 006a F4EEE67A 		vcmpe.f32	s15, s13
 577 006e F1EE10FA 		vmrs	APSR_nzcv, FPSCR
 578 0072 16D5     		bpl	.L78
 579              		.loc 1 191 0
 580 0074 DFED157A 		vldr.32	s15, .L80+12
 581 0078 C2ED006A 		vstr.32	s13, [r2]
 582              	.L68:
 583              	.LVL56:
 584              		.loc 1 193 0
 585 007c 77EE277A 		vadd.f32	s15, s14, s15
 586              	.LVL57:
 587              		.loc 1 195 0
 588 0080 019A     		ldr	r2, [sp, #4]
 589 0082 1B68     		ldr	r3, [r3]
 590              		.loc 1 194 0
 591 0084 FDEEE77A 		vcvt.s32.f32	s15, s15
 592              	.LVL58:
 593              		.loc 1 195 0
 594 0088 9A42     		cmp	r2, r3
 595 008a 17EE901A 		vmov	r1, s15	@ int
 596 008e 08B2     		sxth	r0, r1
 597 0090 13D1     		bne	.L79
 598 0092 03B0     		add	sp, sp, #12
 599              		.cfi_remember_state
 600              		.cfi_def_cfa_offset 4
 601              		@ sp needed
 602 0094 5DF804FB 		ldr	pc, [sp], #4
 603              	.LVL59:
 604              	.L76:
 605              		.cfi_restore_state
 606 0098 B1EE047A 		vmov.f32	s14, #5.0e+0
 607 009c 27EE877A 		vmul.f32	s14, s15, s14
 608 00a0 D5E7     		b	.L65
 609              	.LVL60:
 610              	.L78:
 611 00a2 DFED0F6A 		vldr.32	s13, .L80+32
 612              		.loc 1 186 0
 613 00a6 C2ED007A 		vstr.32	s15, [r2]
 614 00aa 67EEA67A 		vmul.f32	s15, s15, s13
 615 00ae E5E7     		b	.L68
 616              	.L77:
 617              		.loc 1 189 0
 618 00b0 C2ED006A 		vstr.32	s13, [r2]
 619 00b4 DFED067A 		vldr.32	s15, .L80+16
 620 00b8 E0E7     		b	.L68
 621              	.LVL61:
 622              	.L79:
 623              		.loc 1 195 0
 624 00ba FFF7FEFF 		bl	__stack_chk_fail
 625              	.LVL62:
 626              	.L81:
 627 00be 00BF     		.align	2
ARM GAS  C:\Users\guill\AppData\Local\Temp\ccUE1NwH.s 			page 12


 628              	.L80:
 629 00c0 0000A042 		.word	1117782016
 630 00c4 00000000 		.word	__stack_chk_guard
 631 00c8 0000A0C2 		.word	-1029701632
 632 00cc 0000C8C3 		.word	-1010302976
 633 00d0 0000C843 		.word	1137180672
 634 00d4 00000000 		.word	.LANCHOR8
 635 00d8 00007A45 		.word	1165623296
 636 00dc 00007AC5 		.word	-981860352
 637 00e0 CDCCCC3D 		.word	1036831949
 638              		.cfi_endproc
 639              	.LFE259:
 640              		.size	pi_controller, .-pi_controller
 641              		.section	.text.parcours_obstacle,"ax",%progbits
 642              		.align	1
 643              		.p2align 4,,15
 644              		.global	parcours_obstacle
 645              		.syntax unified
 646              		.thumb
 647              		.thumb_func
 648              		.fpu fpv4-sp-d16
 649              		.type	parcours_obstacle, %function
 650              	parcours_obstacle:
 651              	.LFB260:
 652              		.loc 1 204 0
 653              		.cfi_startproc
 654              		@ args = 0, pretend = 0, frame = 8
 655              		@ frame_needed = 0, uses_anonymous_args = 0
 656              	.LVL63:
 657 0000 2DE9F043 		push	{r4, r5, r6, r7, r8, r9, lr}
 658              		.cfi_def_cfa_offset 28
 659              		.cfi_offset 4, -28
 660              		.cfi_offset 5, -24
 661              		.cfi_offset 6, -20
 662              		.cfi_offset 7, -16
 663              		.cfi_offset 8, -12
 664              		.cfi_offset 9, -8
 665              		.cfi_offset 14, -4
 666              		.loc 1 212 0
 667 0004 684D     		ldr	r5, .L115
 668              		.loc 1 204 0
 669 0006 694C     		ldr	r4, .L115+4
 670              		.loc 1 212 0
 671 0008 2B78     		ldrb	r3, [r5]	@ zero_extendqisi2
 672              		.loc 1 204 0
 673 000a 2668     		ldr	r6, [r4]
 674 000c 83B0     		sub	sp, sp, #12
 675              		.cfi_def_cfa_offset 40
 676              		.loc 1 204 0
 677 000e 0196     		str	r6, [sp, #4]
 678              	.LVL64:
 679              		.loc 1 212 0
 680 0010 032B     		cmp	r3, #3
 681 0012 23D8     		bhi	.L82
 682 0014 DFE803F0 		tbb	[pc, r3]
 683              	.L85:
 684 0018 75       		.byte	(.L84-.L85)/2
ARM GAS  C:\Users\guill\AppData\Local\Temp\ccUE1NwH.s 			page 13


 685 0019 02       		.byte	(.L86-.L85)/2
 686 001a 60       		.byte	(.L87-.L85)/2
 687 001b 2A       		.byte	(.L88-.L85)/2
 688              		.p2align 1
 689              	.L86:
 690              		.loc 1 231 0
 691 001c 18B9     		cbnz	r0, .L92
 692              		.loc 1 231 0 is_stmt 0 discriminator 1
 693 001e 11B9     		cbnz	r1, .L92
 694              		.loc 1 231 0 discriminator 2
 695 0020 002A     		cmp	r2, #0
 696 0022 00F0AC80 		beq	.L111
 697              	.L92:
 698              		.loc 1 237 0 is_stmt 1
 699 0026 624E     		ldr	r6, .L115+8
 700 0028 624F     		ldr	r7, .L115+12
 701 002a 3368     		ldr	r3, [r6]
 702 002c 1BB9     		cbnz	r3, .L95
 703              		.loc 1 237 0 is_stmt 0 discriminator 1
 704 002e 3B68     		ldr	r3, [r7]
 705 0030 002B     		cmp	r3, #0
 706 0032 00F0A980 		beq	.L112
 707              	.L95:
 708 0036 604B     		ldr	r3, .L115+16
 709 0038 1878     		ldrb	r0, [r3]	@ zero_extendqisi2
 710              	.LVL65:
 711              	.L94:
 712              		.loc 1 243 0 is_stmt 1
 713 003a 604A     		ldr	r2, .L115+20
 714              		.loc 1 244 0
 715 003c 604B     		ldr	r3, .L115+24
 716              		.loc 1 241 0
 717 003e 0028     		cmp	r0, #0
 718 0040 00F08F80 		beq	.L96
 719              		.loc 1 243 0
 720 0044 40F24121 		movw	r1, #577
 721 0048 1180     		strh	r1, [r2]	@ movhi
 722              		.loc 1 244 0
 723 004a 4FF6BF52 		movw	r2, #64959
 724 004e 1A80     		strh	r2, [r3]	@ movhi
 725              	.L97:
 726              		.loc 1 252 0
 727 0050 FFF7FEFF 		bl	right_motor_get_pos
 728              	.LVL66:
 729 0054 3060     		str	r0, [r6]
 730              		.loc 1 253 0
 731 0056 FFF7FEFF 		bl	left_motor_get_pos
 732              	.LVL67:
 733 005a 3860     		str	r0, [r7]
 734              	.LVL68:
 735              	.L82:
 736              		.loc 1 315 0
 737 005c 019A     		ldr	r2, [sp, #4]
 738 005e 2368     		ldr	r3, [r4]
 739 0060 9A42     		cmp	r2, r3
 740 0062 40F09F80 		bne	.L108
 741 0066 03B0     		add	sp, sp, #12
ARM GAS  C:\Users\guill\AppData\Local\Temp\ccUE1NwH.s 			page 14


 742              		.cfi_remember_state
 743              		.cfi_def_cfa_offset 28
 744              		@ sp needed
 745 0068 BDE8F083 		pop	{r4, r5, r6, r7, r8, r9, pc}
 746              	.LVL69:
 747              	.L88:
 748              		.cfi_restore_state
 749              		.loc 1 292 0
 750 006c 504E     		ldr	r6, .L115+8
 751              		.loc 1 293 0
 752 006e 514F     		ldr	r7, .L115+12
 753              		.loc 1 292 0
 754 0070 D6F80080 		ldr	r8, [r6]
 755 0074 FFF7FEFF 		bl	right_motor_get_pos
 756              	.LVL70:
 757 0078 0146     		mov	r1, r0
 758 007a 4046     		mov	r0, r8
 759 007c FFF7FEFF 		bl	pi_controller
 760              	.LVL71:
 761              		.loc 1 293 0
 762 0080 D7F80090 		ldr	r9, [r7]
 763              		.loc 1 292 0
 764 0084 8046     		mov	r8, r0
 765              	.LVL72:
 766              		.loc 1 293 0
 767 0086 FFF7FEFF 		bl	left_motor_get_pos
 768              	.LVL73:
 769 008a 0146     		mov	r1, r0
 770 008c 4846     		mov	r0, r9
 771 008e FFF7FEFF 		bl	pi_controller
 772              	.LVL74:
 773              		.loc 1 295 0
 774 0092 4949     		ldr	r1, .L115+16
 775 0094 0B78     		ldrb	r3, [r1]	@ zero_extendqisi2
 776 0096 002B     		cmp	r3, #0
 777 0098 46D1     		bne	.L113
 778              		.loc 1 302 0
 779 009a 1FFA88F3 		uxth	r3, r8
 780 009e C3F51072 		rsb	r2, r3, #576
 781 00a2 DFF818E1 		ldr	lr, .L115+20
 782              		.loc 1 303 0
 783 00a6 DFF818C1 		ldr	ip, .L115+24
 784              		.loc 1 302 0
 785 00aa 0132     		adds	r2, r2, #1
 786 00ac AEF80020 		strh	r2, [lr]	@ movhi
 787              		.loc 1 303 0
 788 00b0 00F24122 		addw	r2, r0, #577
 789 00b4 ACF80020 		strh	r2, [ip]	@ movhi
 790              	.L104:
 791              		.loc 1 305 0
 792 00b8 1833     		adds	r3, r3, #24
 793 00ba 9BB2     		uxth	r3, r3
 794 00bc 302B     		cmp	r3, #48
 795 00be 03D9     		bls	.L105
 796              		.loc 1 305 0 is_stmt 0 discriminator 1
 797 00c0 1830     		adds	r0, r0, #24
 798              	.LVL75:
ARM GAS  C:\Users\guill\AppData\Local\Temp\ccUE1NwH.s 			page 15


 799 00c2 80B2     		uxth	r0, r0
 800 00c4 3028     		cmp	r0, #48
 801 00c6 C9D8     		bhi	.L82
 802              	.L105:
 803              		.loc 1 308 0 is_stmt 1
 804 00c8 3E4A     		ldr	r2, .L115+28
 805              		.loc 1 307 0
 806 00ca 0023     		movs	r3, #0
 807              		.loc 1 308 0
 808 00cc 1370     		strb	r3, [r2]
 809              		.loc 1 307 0
 810 00ce 0B70     		strb	r3, [r1]
 811              		.loc 1 309 0
 812 00d0 2B70     		strb	r3, [r5]
 813              		.loc 1 310 0
 814 00d2 3360     		str	r3, [r6]
 815              		.loc 1 311 0
 816 00d4 3B60     		str	r3, [r7]
 817              		.loc 1 315 0
 818 00d6 C1E7     		b	.L82
 819              	.LVL76:
 820              	.L87:
 821              		.loc 1 259 0
 822 00d8 0028     		cmp	r0, #0
 823 00da 34D1     		bne	.L98
 824              		.loc 1 261 0
 825 00dc 364B     		ldr	r3, .L115+16
 826 00de 1B78     		ldrb	r3, [r3]	@ zero_extendqisi2
 827 00e0 002B     		cmp	r3, #0
 828 00e2 45D0     		beq	.L99
 829              		.loc 1 263 0
 830 00e4 0220     		movs	r0, #2
 831              	.LVL77:
 832 00e6 FFF7FEFF 		bl	get_obstacle_condition
 833              	.LVL78:
 834 00ea 364B     		ldr	r3, .L115+28
 835 00ec 0646     		mov	r6, r0
 836 00ee 1870     		strb	r0, [r3]
 837              	.L100:
 838              		.loc 1 269 0
 839 00f0 002E     		cmp	r6, #0
 840 00f2 47D0     		beq	.L101
 841              		.loc 1 271 0
 842 00f4 3149     		ldr	r1, .L115+20
 843              		.loc 1 272 0
 844 00f6 324A     		ldr	r2, .L115+24
 845              		.loc 1 271 0
 846 00f8 40F24123 		movw	r3, #577
 847 00fc 0B80     		strh	r3, [r1]	@ movhi
 848              		.loc 1 272 0
 849 00fe 1380     		strh	r3, [r2]	@ movhi
 850 0100 ACE7     		b	.L82
 851              	.LVL79:
 852              	.L84:
 853              		.loc 1 216 0
 854 0102 10B9     		cbnz	r0, .L89
 855              		.loc 1 216 0 is_stmt 0 discriminator 1
ARM GAS  C:\Users\guill\AppData\Local\Temp\ccUE1NwH.s 			page 16


 856 0104 09B9     		cbnz	r1, .L89
 857              		.loc 1 216 0 discriminator 2
 858 0106 002A     		cmp	r2, #0
 859 0108 43D0     		beq	.L114
 860              	.L89:
 861              		.loc 1 223 0 is_stmt 1
 862 010a 0123     		movs	r3, #1
 863              	.LVL80:
 864              	.L110:
 865              		.loc 1 224 0
 866 010c 0020     		movs	r0, #0
 867              		.loc 1 223 0
 868 010e 2B70     		strb	r3, [r5]
 869              		.loc 1 224 0
 870 0110 FFF7FEFF 		bl	right_motor_set_pos
 871              	.LVL81:
 872              		.loc 1 225 0
 873 0114 019A     		ldr	r2, [sp, #4]
 874 0116 2368     		ldr	r3, [r4]
 875 0118 9A42     		cmp	r2, r3
 876 011a 43D1     		bne	.L108
 877 011c 0020     		movs	r0, #0
 878              		.loc 1 315 0
 879 011e 03B0     		add	sp, sp, #12
 880              		.cfi_remember_state
 881              		.cfi_def_cfa_offset 28
 882              		@ sp needed
 883 0120 BDE8F043 		pop	{r4, r5, r6, r7, r8, r9, lr}
 884              		.cfi_restore 14
 885              		.cfi_restore 9
 886              		.cfi_restore 8
 887              		.cfi_restore 7
 888              		.cfi_restore 6
 889              		.cfi_restore 5
 890              		.cfi_restore 4
 891              		.cfi_def_cfa_offset 0
 892              		.loc 1 225 0
 893 0124 FFF7FEBF 		b	left_motor_set_pos
 894              	.LVL82:
 895              	.L113:
 896              		.cfi_restore_state
 897              		.loc 1 297 0
 898 0128 244A     		ldr	r2, .L115+20
 899              		.loc 1 298 0
 900 012a DFF894C0 		ldr	ip, .L115+24
 901              		.loc 1 297 0
 902 012e 1FFA88F3 		uxth	r3, r8
 903 0132 03F2412E 		addw	lr, r3, #577
 904 0136 A2F800E0 		strh	lr, [r2]	@ movhi
 905              		.loc 1 298 0
 906 013a C0F51072 		rsb	r2, r0, #576
 907 013e 0132     		adds	r2, r2, #1
 908 0140 ACF80020 		strh	r2, [ip]	@ movhi
 909 0144 B8E7     		b	.L104
 910              	.LVL83:
 911              	.L98:
 912              		.loc 1 283 0
ARM GAS  C:\Users\guill\AppData\Local\Temp\ccUE1NwH.s 			page 17


 913 0146 0123     		movs	r3, #1
 914              		.loc 1 284 0
 915 0148 0020     		movs	r0, #0
 916              	.LVL84:
 917              		.loc 1 283 0
 918 014a 2B70     		strb	r3, [r5]
 919              		.loc 1 284 0
 920 014c FFF7FEFF 		bl	right_motor_set_pos
 921              	.LVL85:
 922              		.loc 1 285 0
 923 0150 0020     		movs	r0, #0
 924 0152 FFF7FEFF 		bl	left_motor_set_pos
 925              	.LVL86:
 926              		.loc 1 286 0
 927 0156 1649     		ldr	r1, .L115+8
 928              		.loc 1 287 0
 929 0158 164A     		ldr	r2, .L115+12
 930              		.loc 1 286 0
 931 015a 0023     		movs	r3, #0
 932 015c 0B60     		str	r3, [r1]
 933              		.loc 1 287 0
 934 015e 1360     		str	r3, [r2]
 935 0160 7CE7     		b	.L82
 936              	.L96:
 937              		.loc 1 249 0
 938 0162 4FF6BF51 		movw	r1, #64959
 939 0166 1180     		strh	r1, [r2]	@ movhi
 940              		.loc 1 250 0
 941 0168 40F24122 		movw	r2, #577
 942 016c 1A80     		strh	r2, [r3]	@ movhi
 943 016e 6FE7     		b	.L97
 944              	.LVL87:
 945              	.L99:
 946              		.loc 1 267 0
 947 0170 0520     		movs	r0, #5
 948              	.LVL88:
 949 0172 FFF7FEFF 		bl	get_obstacle_condition
 950              	.LVL89:
 951 0176 134B     		ldr	r3, .L115+28
 952 0178 0646     		mov	r6, r0
 953 017a 1870     		strb	r0, [r3]
 954 017c B8E7     		b	.L100
 955              	.LVL90:
 956              	.L111:
 957              		.loc 1 233 0
 958 017e 0223     		movs	r3, #2
 959 0180 2B70     		strb	r3, [r5]
 960 0182 6BE7     		b	.L82
 961              	.LVL91:
 962              	.L101:
 963              		.loc 1 276 0
 964 0184 0323     		movs	r3, #3
 965 0186 C1E7     		b	.L110
 966              	.LVL92:
 967              	.L112:
 968              		.loc 1 239 0
 969 0188 FFF7FEFF 		bl	check_chemin
ARM GAS  C:\Users\guill\AppData\Local\Temp\ccUE1NwH.s 			page 18


 970              	.LVL93:
 971 018c 0A4B     		ldr	r3, .L115+16
 972 018e 1870     		strb	r0, [r3]
 973 0190 53E7     		b	.L94
 974              	.LVL94:
 975              	.L114:
 976              		.loc 1 218 0
 977 0192 019A     		ldr	r2, [sp, #4]
 978              	.LVL95:
 979 0194 2368     		ldr	r3, [r4]
 980 0196 9A42     		cmp	r2, r3
 981 0198 04D1     		bne	.L108
 982              		.loc 1 315 0
 983 019a 03B0     		add	sp, sp, #12
 984              		.cfi_remember_state
 985              		.cfi_def_cfa_offset 28
 986              		@ sp needed
 987 019c BDE8F043 		pop	{r4, r5, r6, r7, r8, r9, lr}
 988              		.cfi_restore 14
 989              		.cfi_restore 9
 990              		.cfi_restore 8
 991              		.cfi_restore 7
 992              		.cfi_restore 6
 993              		.cfi_restore 5
 994              		.cfi_restore 4
 995              		.cfi_def_cfa_offset 0
 996              		.loc 1 218 0
 997 01a0 FFF7FEBF 		b	reponse_sonore
 998              	.LVL96:
 999              	.L108:
 1000              		.cfi_restore_state
 1001              		.loc 1 315 0
 1002 01a4 FFF7FEFF 		bl	__stack_chk_fail
 1003              	.LVL97:
 1004              	.L116:
 1005              		.align	2
 1006              	.L115:
 1007 01a8 00000000 		.word	.LANCHOR9
 1008 01ac 00000000 		.word	__stack_chk_guard
 1009 01b0 00000000 		.word	.LANCHOR10
 1010 01b4 00000000 		.word	.LANCHOR12
 1011 01b8 00000000 		.word	.LANCHOR11
 1012 01bc 00000000 		.word	.LANCHOR5
 1013 01c0 00000000 		.word	.LANCHOR6
 1014 01c4 00000000 		.word	.LANCHOR13
 1015              		.cfi_endproc
 1016              	.LFE260:
 1017              		.size	parcours_obstacle, .-parcours_obstacle
 1018              		.section	.text.commande_recu,"ax",%progbits
 1019              		.align	1
 1020              		.p2align 4,,15
 1021              		.global	commande_recu
 1022              		.syntax unified
 1023              		.thumb
 1024              		.thumb_func
 1025              		.fpu fpv4-sp-d16
 1026              		.type	commande_recu, %function
ARM GAS  C:\Users\guill\AppData\Local\Temp\ccUE1NwH.s 			page 19


 1027              	commande_recu:
 1028              	.LFB261:
 1029              		.loc 1 321 0
 1030              		.cfi_startproc
 1031              		@ args = 0, pretend = 0, frame = 8
 1032              		@ frame_needed = 0, uses_anonymous_args = 0
 1033              	.LVL98:
 1034 0000 00B5     		push	{lr}
 1035              		.cfi_def_cfa_offset 4
 1036              		.cfi_offset 14, -4
 1037 0002 1D4B     		ldr	r3, .L134
 1038              		.loc 1 322 0
 1039 0004 F3EE017A 		vmov.f32	s15, #1.7e+1
 1040              		.loc 1 321 0
 1041 0008 83B0     		sub	sp, sp, #12
 1042              		.cfi_def_cfa_offset 16
 1043              		.loc 1 322 0
 1044 000a B4EEE70A 		vcmpe.f32	s0, s15
 1045              		.loc 1 321 0
 1046 000e 1A68     		ldr	r2, [r3]
 1047 0010 0192     		str	r2, [sp, #4]
 1048              		.loc 1 322 0
 1049 0012 F1EE10FA 		vmrs	APSR_nzcv, FPSCR
 1050 0016 0EDD     		ble	.L118
 1051              		.loc 1 322 0 is_stmt 0 discriminator 1
 1052 0018 F3EE0B7A 		vmov.f32	s15, #2.7e+1
 1053 001c B4EEE70A 		vcmpe.f32	s0, s15
 1054 0020 F1EE10FA 		vmrs	APSR_nzcv, FPSCR
 1055 0024 07D5     		bpl	.L118
 1056              		.loc 1 324 0 is_stmt 1
 1057 0026 154A     		ldr	r2, .L134+4
 1058 0028 1078     		ldrb	r0, [r2]	@ zero_extendqisi2
 1059 002a 80B9     		cbnz	r0, .L121
 1060              	.L131:
 1061              	.LBB46:
 1062              	.LBB47:
 1063              		.loc 1 337 0
 1064 002c 1449     		ldr	r1, .L134+8
 1065              		.loc 1 336 0
 1066 002e 0120     		movs	r0, #1
 1067              		.loc 1 337 0
 1068 0030 0870     		strb	r0, [r1]
 1069              		.loc 1 336 0
 1070 0032 1070     		strb	r0, [r2]
 1071 0034 0BE0     		b	.L121
 1072              	.L118:
 1073              	.LBE47:
 1074              	.LBE46:
 1075              		.loc 1 332 0
 1076 0036 F3EE0B7A 		vmov.f32	s15, #2.7e+1
 1077 003a B4EEE70A 		vcmpe.f32	s0, s15
 1078 003e F1EE10FA 		vmrs	APSR_nzcv, FPSCR
 1079 0042 0BDC     		bgt	.L132
 1080              	.L122:
 1081              		.loc 1 344 0
 1082 0044 0D49     		ldr	r1, .L134+4
 1083              		.loc 1 345 0
ARM GAS  C:\Users\guill\AppData\Local\Temp\ccUE1NwH.s 			page 20


 1084 0046 0F4A     		ldr	r2, .L134+12
 1085              		.loc 1 344 0
 1086 0048 0020     		movs	r0, #0
 1087 004a 0870     		strb	r0, [r1]
 1088              		.loc 1 345 0
 1089 004c 1070     		strb	r0, [r2]
 1090              	.L121:
 1091              		.loc 1 348 0
 1092 004e 019A     		ldr	r2, [sp, #4]
 1093 0050 1B68     		ldr	r3, [r3]
 1094 0052 9A42     		cmp	r2, r3
 1095 0054 0ED1     		bne	.L133
 1096 0056 03B0     		add	sp, sp, #12
 1097              		.cfi_remember_state
 1098              		.cfi_def_cfa_offset 4
 1099              		@ sp needed
 1100 0058 5DF804FB 		ldr	pc, [sp], #4
 1101              	.L132:
 1102              		.cfi_restore_state
 1103              		.loc 1 332 0 discriminator 1
 1104 005c DFED0A7A 		vldr.32	s15, .L134+16
 1105 0060 B4EEE70A 		vcmpe.f32	s0, s15
 1106 0064 F1EE10FA 		vmrs	APSR_nzcv, FPSCR
 1107 0068 ECD5     		bpl	.L122
 1108              	.LVL99:
 1109              	.LBB49:
 1110              	.LBB48:
 1111              		.loc 1 334 0
 1112 006a 064A     		ldr	r2, .L134+12
 1113 006c 1078     		ldrb	r0, [r2]	@ zero_extendqisi2
 1114 006e 0028     		cmp	r0, #0
 1115 0070 EDD1     		bne	.L121
 1116 0072 DBE7     		b	.L131
 1117              	.LVL100:
 1118              	.L133:
 1119              	.LBE48:
 1120              	.LBE49:
 1121              		.loc 1 348 0
 1122 0074 FFF7FEFF 		bl	__stack_chk_fail
 1123              	.LVL101:
 1124              	.L135:
 1125              		.align	2
 1126              	.L134:
 1127 0078 00000000 		.word	__stack_chk_guard
 1128 007c 00000000 		.word	.LANCHOR1
 1129 0080 00000000 		.word	.LANCHOR3
 1130 0084 00000000 		.word	.LANCHOR2
 1131 0088 00001442 		.word	1108606976
 1132              		.cfi_endproc
 1133              	.LFE261:
 1134              		.size	commande_recu, .-commande_recu
 1135              		.section	.text.Parcours,"ax",%progbits
 1136              		.align	1
 1137              		.p2align 4,,15
 1138              		.syntax unified
 1139              		.thumb
 1140              		.thumb_func
ARM GAS  C:\Users\guill\AppData\Local\Temp\ccUE1NwH.s 			page 21


 1141              		.fpu fpv4-sp-d16
 1142              		.type	Parcours, %function
 1143              	Parcours:
 1144              	.LFB266:
 1145              		.loc 1 390 0
 1146              		.cfi_startproc
 1147              		@ args = 0, pretend = 0, frame = 16
 1148              		@ frame_needed = 0, uses_anonymous_args = 0
 1149              	.LVL102:
 1150 0000 2DE9F04F 		push	{r4, r5, r6, r7, r8, r9, r10, fp, lr}
 1151              		.cfi_def_cfa_offset 36
 1152              		.cfi_offset 4, -36
 1153              		.cfi_offset 5, -32
 1154              		.cfi_offset 6, -28
 1155              		.cfi_offset 7, -24
 1156              		.cfi_offset 8, -20
 1157              		.cfi_offset 9, -16
 1158              		.cfi_offset 10, -12
 1159              		.cfi_offset 11, -8
 1160              		.cfi_offset 14, -4
 1161 0004 2DED028B 		vpush.64	{d8}
 1162              		.cfi_def_cfa_offset 44
 1163              		.cfi_offset 80, -44
 1164              		.cfi_offset 81, -40
 1165              	.LBB85:
 1166              	.LBB86:
 1167              		.file 2 "../../lib/e-puck2_main-processor/ChibiOS//os/rt/include/chregistry.h"
 1168              		.loc 2 135 0
 1169 0008 494C     		ldr	r4, .L153
 1170              	.LBE86:
 1171              	.LBE85:
 1172              		.loc 1 390 0
 1173 000a 4A4B     		ldr	r3, .L153+4
 1174              	.LBB89:
 1175              	.LBB87:
 1176              		.loc 2 135 0
 1177 000c A269     		ldr	r2, [r4, #24]
 1178 000e 4A49     		ldr	r1, .L153+8
 1179              	.LBE87:
 1180              	.LBE89:
 1181              		.loc 1 390 0
 1182 0010 1B68     		ldr	r3, [r3]
 1183              		.loc 1 400 0
 1184 0012 9FED4A8A 		vldr.32	s16, .L153+12
 1185 0016 DFF83481 		ldr	r8, .L153+28
 1186 001a DFF834B1 		ldr	fp, .L153+32
 1187 001e DFF834A1 		ldr	r10, .L153+36
 1188              	.LBB90:
 1189              	.LBB88:
 1190              		.loc 2 135 0
 1191 0022 9161     		str	r1, [r2, #24]
 1192              	.LBE88:
 1193              	.LBE90:
 1194              		.loc 1 390 0
 1195 0024 85B0     		sub	sp, sp, #20
 1196              		.cfi_def_cfa_offset 64
 1197              	.LBB91:
ARM GAS  C:\Users\guill\AppData\Local\Temp\ccUE1NwH.s 			page 22


 1198              	.LBB92:
 1199              	.LBB93:
 1200              	.LBB94:
 1201              	.LBB95:
 1202              	.LBB96:
 1203              	.LBB97:
 1204              		.file 3 "../../lib/e-puck2_main-processor/ChibiOS//os/ext/CMSIS/include/core_cmFunc.h"
 1205              		.loc 3 546 0
 1206 0026 4FF02009 		mov	r9, #32
 1207              	.LBE97:
 1208              	.LBE96:
 1209              	.LBE95:
 1210              	.LBE94:
 1211              	.LBE93:
 1212              	.LBE92:
 1213              	.LBE91:
 1214              		.loc 1 390 0
 1215 002a 0393     		str	r3, [sp, #12]
 1216              	.LVL103:
 1217              	.LBB117:
 1218              	.LBB115:
 1219              	.LBB102:
 1220              	.LBB103:
 1221              	.LBB104:
 1222              	.LBB105:
 1223              	.LBB106:
 1224              		.loc 3 546 0
 1225 002c 0027     		movs	r7, #0
 1226 002e 26E0     		b	.L146
 1227              	.LVL104:
 1228              	.L152:
 1229              	.LBE106:
 1230              	.LBE105:
 1231              	.LBE104:
 1232              	.LBE103:
 1233              	.LBE102:
 1234              	.LBE115:
 1235              	.LBE117:
 1236              		.loc 1 417 0
 1237 0030 8AF80070 		strb	r7, [r10]
 1238              	.L143:
 1239              		.loc 1 424 0
 1240 0034 FFF7FEFF 		bl	get_freq
 1241              	.LVL105:
 1242 0038 B0EE408A 		vmov.f32	s16, s0
 1243              	.LVL106:
 1244              		.loc 1 425 0
 1245 003c FFF7FEFF 		bl	valeurs_calibrees
 1246              	.LVL107:
 1247              		.loc 1 426 0
 1248 0040 0020     		movs	r0, #0
 1249 0042 FFF7FEFF 		bl	get_obstacle_condition
 1250              	.LVL108:
 1251 0046 0646     		mov	r6, r0
 1252              	.LVL109:
 1253              		.loc 1 427 0
 1254 0048 0120     		movs	r0, #1
ARM GAS  C:\Users\guill\AppData\Local\Temp\ccUE1NwH.s 			page 23


 1255 004a FFF7FEFF 		bl	get_obstacle_condition
 1256              	.LVL110:
 1257 004e 0190     		str	r0, [sp, #4]
 1258              	.LVL111:
 1259              		.loc 1 428 0
 1260 0050 0620     		movs	r0, #6
 1261 0052 FFF7FEFF 		bl	get_obstacle_condition
 1262              	.LVL112:
 1263              		.loc 1 430 0
 1264 0056 0199     		ldr	r1, [sp, #4]
 1265 0058 0246     		mov	r2, r0
 1266 005a 3046     		mov	r0, r6
 1267              	.LVL113:
 1268 005c FFF7FEFF 		bl	parcours_obstacle
 1269              	.LVL114:
 1270              	.L145:
 1271              		.loc 1 432 0
 1272 0060 374B     		ldr	r3, .L153+16
 1273 0062 B3F90000 		ldrsh	r0, [r3]
 1274 0066 FFF7FEFF 		bl	right_motor_set_speed
 1275              	.LVL115:
 1276              		.loc 1 433 0
 1277 006a 364B     		ldr	r3, .L153+20
 1278 006c B3F90000 		ldrsh	r0, [r3]
 1279 0070 FFF7FEFF 		bl	left_motor_set_speed
 1280              	.LVL116:
 1281              		.loc 1 434 0
 1282 0074 05F10A01 		add	r1, r5, #10
 1283 0078 2846     		mov	r0, r5
 1284 007a FFF7FEFF 		bl	chThdSleepUntilWindowed
 1285              	.LVL117:
 1286              	.L146:
 1287              	.LBB118:
 1288              	.LBB116:
 1289              	.LBB111:
 1290              	.LBB101:
 1291              	.LBB100:
 1292              	.LBB99:
 1293              	.LBB98:
 1294              		.loc 3 546 0
 1295              		.syntax unified
 1296              	@ 546 "../../lib/e-puck2_main-processor/ChibiOS//os/ext/CMSIS/include/core_cmFunc.h" 1
 1297 007e 89F31188 		MSR basepri, r9
 1298              	@ 0 "" 2
 1299              	.LVL118:
 1300              		.thumb
 1301              		.syntax unified
 1302              	.LBE98:
 1303              	.LBE99:
 1304              	.LBE100:
 1305              		.file 4 "../../lib/e-puck2_main-processor/ChibiOS//os/rt/include/chsys.h"
 1306              		.loc 4 349 0
 1307 0082 FFF7FEFF 		bl	_stats_start_measure_crit_thd
 1308              	.LVL119:
 1309              		.loc 4 350 0
 1310 0086 FFF7FEFF 		bl	_dbg_check_lock
 1311              	.LVL120:
ARM GAS  C:\Users\guill\AppData\Local\Temp\ccUE1NwH.s 			page 24


 1312              	.LBE101:
 1313              	.LBE111:
 1314              	.LBB112:
 1315              	.LBB113:
 1316              		.file 5 "../../lib/e-puck2_main-processor/ChibiOS//os/rt/include/chvt.h"
 1317              		.loc 5 231 0
 1318 008a A56A     		ldr	r5, [r4, #40]
 1319              	.LBE113:
 1320              	.LBE112:
 1321              	.LBB114:
 1322              	.LBB110:
 1323              		.loc 4 360 0
 1324 008c FFF7FEFF 		bl	_dbg_check_unlock
 1325              	.LVL121:
 1326              		.loc 4 361 0
 1327 0090 FFF7FEFF 		bl	_stats_stop_measure_crit_thd
 1328              	.LVL122:
 1329              		.loc 4 367 0
 1330 0094 2368     		ldr	r3, [r4]
 1331 0096 A342     		cmp	r3, r4
 1332 0098 07D0     		beq	.L137
 1333 009a A269     		ldr	r2, [r4, #24]
 1334 009c 9B68     		ldr	r3, [r3, #8]
 1335 009e 9268     		ldr	r2, [r2, #8]
 1336 00a0 9A42     		cmp	r2, r3
 1337 00a2 02D2     		bcs	.L137
 1338 00a4 2848     		ldr	r0, .L153+24
 1339 00a6 FFF7FEFF 		bl	chSysHalt
 1340              	.LVL123:
 1341              	.L137:
 1342              	.LBB109:
 1343              	.LBB108:
 1344              	.LBB107:
 1345              		.loc 3 546 0
 1346              		.syntax unified
 1347              	@ 546 "../../lib/e-puck2_main-processor/ChibiOS//os/ext/CMSIS/include/core_cmFunc.h" 1
 1348 00aa 87F31188 		MSR basepri, r7
 1349              	@ 0 "" 2
 1350              	.LVL124:
 1351              		.thumb
 1352              		.syntax unified
 1353              	.LBE107:
 1354              	.LBE108:
 1355              	.LBE109:
 1356              	.LBE110:
 1357              	.LBE114:
 1358              	.LBE116:
 1359              	.LBE118:
 1360              		.loc 1 406 0
 1361 00ae 98F80030 		ldrb	r3, [r8]	@ zero_extendqisi2
 1362 00b2 F3B1     		cbz	r3, .L138
 1363 00b4 DBF80060 		ldr	r6, [fp]
 1364              	.L139:
 1365              		.loc 1 412 0
 1366 00b8 B0EE480A 		vmov.f32	s0, s16
 1367 00bc FFF7FEFF 		bl	commande_recu
 1368              	.LVL125:
ARM GAS  C:\Users\guill\AppData\Local\Temp\ccUE1NwH.s 			page 25


 1369 00c0 08B1     		cbz	r0, .L141
 1370              		.loc 1 414 0
 1371 00c2 88F80070 		strb	r7, [r8]
 1372              	.L141:
 1373              		.loc 1 417 0
 1374 00c6 B0EE480A 		vmov.f32	s0, s16
 1375 00ca FFF7FEFF 		bl	commande_recu
 1376              	.LVL126:
 1377              	.LBB119:
 1378              	.LBB120:
 1379              		.loc 1 354 0
 1380 00ce 0028     		cmp	r0, #0
 1381 00d0 AED1     		bne	.L152
 1382              	.LVL127:
 1383              	.LBB121:
 1384              	.LBB122:
 1385              		.loc 1 356 0
 1386 00d2 9AF80030 		ldrb	r3, [r10]	@ zero_extendqisi2
 1387 00d6 4BB9     		cbnz	r3, .L144
 1388              	.LVL128:
 1389              	.LBB123:
 1390              		.loc 1 359 0
 1391 00d8 05F2E733 		addw	r3, r5, #999
 1392 00dc 9E1B     		subs	r6, r3, r6
 1393 00de 41F28733 		movw	r3, #4999
 1394 00e2 9E42     		cmp	r6, r3
 1395 00e4 A6D9     		bls	.L143
 1396              	.LVL129:
 1397              	.LBE123:
 1398              	.LBE122:
 1399              	.LBE121:
 1400              	.LBE120:
 1401              	.LBE119:
 1402              		.loc 1 417 0
 1403 00e6 0123     		movs	r3, #1
 1404 00e8 8AF80030 		strb	r3, [r10]
 1405              	.LVL130:
 1406              	.L144:
 1407              		.loc 1 420 0
 1408 00ec FFF7FEFF 		bl	parcours_en_infini
 1409              	.LVL131:
 1410 00f0 B6E7     		b	.L145
 1411              	.LVL132:
 1412              	.L138:
 1413              	.LBB124:
 1414              	.LBB125:
 1415              	.LBB126:
 1416              	.LBB127:
 1417              	.LBB128:
 1418              	.LBB129:
 1419              	.LBB130:
 1420              		.loc 3 546 0
 1421              		.syntax unified
 1422              	@ 546 "../../lib/e-puck2_main-processor/ChibiOS//os/ext/CMSIS/include/core_cmFunc.h" 1
 1423 00f2 89F31188 		MSR basepri, r9
 1424              	@ 0 "" 2
 1425              	.LVL133:
ARM GAS  C:\Users\guill\AppData\Local\Temp\ccUE1NwH.s 			page 26


 1426              		.thumb
 1427              		.syntax unified
 1428              	.LBE130:
 1429              	.LBE129:
 1430              	.LBE128:
 1431              		.loc 4 349 0
 1432 00f6 FFF7FEFF 		bl	_stats_start_measure_crit_thd
 1433              	.LVL134:
 1434              		.loc 4 350 0
 1435 00fa FFF7FEFF 		bl	_dbg_check_lock
 1436              	.LVL135:
 1437              	.LBE127:
 1438              	.LBE126:
 1439              	.LBB131:
 1440              	.LBB132:
 1441              		.loc 5 231 0
 1442 00fe A66A     		ldr	r6, [r4, #40]
 1443              	.LBE132:
 1444              	.LBE131:
 1445              	.LBB133:
 1446              	.LBB134:
 1447              		.loc 4 360 0
 1448 0100 FFF7FEFF 		bl	_dbg_check_unlock
 1449              	.LVL136:
 1450              		.loc 4 361 0
 1451 0104 FFF7FEFF 		bl	_stats_stop_measure_crit_thd
 1452              	.LVL137:
 1453              		.loc 4 367 0
 1454 0108 2368     		ldr	r3, [r4]
 1455 010a A342     		cmp	r3, r4
 1456 010c 07D0     		beq	.L140
 1457 010e A269     		ldr	r2, [r4, #24]
 1458 0110 9B68     		ldr	r3, [r3, #8]
 1459 0112 9268     		ldr	r2, [r2, #8]
 1460 0114 9A42     		cmp	r2, r3
 1461 0116 02D2     		bcs	.L140
 1462 0118 0B48     		ldr	r0, .L153+24
 1463 011a FFF7FEFF 		bl	chSysHalt
 1464              	.LVL138:
 1465              	.L140:
 1466              	.LBB135:
 1467              	.LBB136:
 1468              	.LBB137:
 1469              		.loc 3 546 0
 1470              		.syntax unified
 1471              	@ 546 "../../lib/e-puck2_main-processor/ChibiOS//os/ext/CMSIS/include/core_cmFunc.h" 1
 1472 011e 87F31188 		MSR basepri, r7
 1473              	@ 0 "" 2
 1474              	.LVL139:
 1475              		.thumb
 1476              		.syntax unified
 1477              	.LBE137:
 1478              	.LBE136:
 1479              	.LBE135:
 1480              	.LBE134:
 1481              	.LBE133:
 1482              	.LBE125:
ARM GAS  C:\Users\guill\AppData\Local\Temp\ccUE1NwH.s 			page 27


 1483              	.LBE124:
 1484              		.loc 1 409 0
 1485 0122 0123     		movs	r3, #1
 1486              		.loc 1 408 0
 1487 0124 CBF80060 		str	r6, [fp]
 1488              		.loc 1 409 0
 1489 0128 88F80030 		strb	r3, [r8]
 1490 012c C4E7     		b	.L139
 1491              	.L154:
 1492 012e 00BF     		.align	2
 1493              	.L153:
 1494 0130 00000000 		.word	ch
 1495 0134 00000000 		.word	__stack_chk_guard
 1496 0138 00000000 		.word	.LANCHOR14
 1497 013c 00000000 		.word	0
 1498 0140 00000000 		.word	.LANCHOR5
 1499 0144 00000000 		.word	.LANCHOR6
 1500 0148 00000000 		.word	.LANCHOR15
 1501 014c 00000000 		.word	.LANCHOR16
 1502 0150 00000000 		.word	.LANCHOR17
 1503 0154 00000000 		.word	.LANCHOR18
 1504              		.cfi_endproc
 1505              	.LFE266:
 1506              		.size	Parcours, .-Parcours
 1507              		.section	.text.lancement_idle,"ax",%progbits
 1508              		.align	1
 1509              		.p2align 4,,15
 1510              		.global	lancement_idle
 1511              		.syntax unified
 1512              		.thumb
 1513              		.thumb_func
 1514              		.fpu fpv4-sp-d16
 1515              		.type	lancement_idle, %function
 1516              	lancement_idle:
 1517              	.LFB262:
 1518              		.loc 1 351 0
 1519              		.cfi_startproc
 1520              		@ args = 0, pretend = 0, frame = 8
 1521              		@ frame_needed = 0, uses_anonymous_args = 0
 1522              	.LVL140:
 1523 0000 30B5     		push	{r4, r5, lr}
 1524              		.cfi_def_cfa_offset 12
 1525              		.cfi_offset 4, -12
 1526              		.cfi_offset 5, -8
 1527              		.cfi_offset 14, -4
 1528 0002 0D4C     		ldr	r4, .L162
 1529 0004 83B0     		sub	sp, sp, #12
 1530              		.cfi_def_cfa_offset 24
 1531              		.loc 1 351 0
 1532 0006 2568     		ldr	r5, [r4]
 1533 0008 0195     		str	r5, [sp, #4]
 1534              		.loc 1 354 0
 1535 000a 8AB9     		cbnz	r2, .L158
 1536              	.LVL141:
 1537              	.LBB141:
 1538              	.LBB142:
 1539              		.loc 1 356 0
ARM GAS  C:\Users\guill\AppData\Local\Temp\ccUE1NwH.s 			page 28


 1540 000c 73B9     		cbnz	r3, .L159
 1541              	.LVL142:
 1542              	.LBB143:
 1543              		.loc 1 358 0
 1544 000e 401A     		subs	r0, r0, r1
 1545              	.LVL143:
 1546              		.loc 1 359 0
 1547 0010 00F2E733 		addw	r3, r0, #999
 1548              	.LVL144:
 1549 0014 41F28730 		movw	r0, #4999
 1550              	.LVL145:
 1551 0018 8342     		cmp	r3, r0
 1552 001a 94BF     		ite	ls
 1553 001c 0020     		movls	r0, #0
 1554 001e 0120     		movhi	r0, #1
 1555              	.LVL146:
 1556              	.L156:
 1557              	.LBE143:
 1558              	.LBE142:
 1559              	.LBE141:
 1560              		.loc 1 368 0
 1561 0020 019A     		ldr	r2, [sp, #4]
 1562              	.LVL147:
 1563 0022 2368     		ldr	r3, [r4]
 1564 0024 9A42     		cmp	r2, r3
 1565 0026 05D1     		bne	.L161
 1566 0028 03B0     		add	sp, sp, #12
 1567              		.cfi_remember_state
 1568              		.cfi_def_cfa_offset 12
 1569              		@ sp needed
 1570 002a 30BD     		pop	{r4, r5, pc}
 1571              	.LVL148:
 1572              	.L159:
 1573              		.cfi_restore_state
 1574              	.LBB145:
 1575              	.LBB144:
 1576              		.loc 1 365 0
 1577 002c 1846     		mov	r0, r3
 1578              	.LVL149:
 1579 002e F7E7     		b	.L156
 1580              	.LVL150:
 1581              	.L158:
 1582              	.LBE144:
 1583              	.LBE145:
 1584              		.loc 1 367 0
 1585 0030 0020     		movs	r0, #0
 1586              	.LVL151:
 1587 0032 F5E7     		b	.L156
 1588              	.LVL152:
 1589              	.L161:
 1590              		.loc 1 368 0
 1591 0034 FFF7FEFF 		bl	__stack_chk_fail
 1592              	.LVL153:
 1593              	.L163:
 1594              		.align	2
 1595              	.L162:
 1596 0038 00000000 		.word	__stack_chk_guard
ARM GAS  C:\Users\guill\AppData\Local\Temp\ccUE1NwH.s 			page 29


 1597              		.cfi_endproc
 1598              	.LFE262:
 1599              		.size	lancement_idle, .-lancement_idle
 1600              		.section	.text.get_parcours_etat,"ax",%progbits
 1601              		.align	1
 1602              		.p2align 4,,15
 1603              		.global	get_parcours_etat
 1604              		.syntax unified
 1605              		.thumb
 1606              		.thumb_func
 1607              		.fpu fpv4-sp-d16
 1608              		.type	get_parcours_etat, %function
 1609              	get_parcours_etat:
 1610              	.LFB263:
 1611              		.loc 1 372 0
 1612              		.cfi_startproc
 1613              		@ args = 0, pretend = 0, frame = 8
 1614              		@ frame_needed = 0, uses_anonymous_args = 0
 1615 0000 00B5     		push	{lr}
 1616              		.cfi_def_cfa_offset 4
 1617              		.cfi_offset 14, -4
 1618 0002 074B     		ldr	r3, .L168
 1619              		.loc 1 373 0
 1620 0004 0749     		ldr	r1, .L168+4
 1621              		.loc 1 372 0
 1622 0006 1A68     		ldr	r2, [r3]
 1623              		.loc 1 374 0
 1624 0008 0878     		ldrb	r0, [r1]	@ zero_extendqisi2
 1625              		.loc 1 372 0
 1626 000a 83B0     		sub	sp, sp, #12
 1627              		.cfi_def_cfa_offset 16
 1628              		.loc 1 372 0
 1629 000c 0192     		str	r2, [sp, #4]
 1630              		.loc 1 374 0
 1631 000e 019A     		ldr	r2, [sp, #4]
 1632 0010 1B68     		ldr	r3, [r3]
 1633 0012 9A42     		cmp	r2, r3
 1634 0014 02D1     		bne	.L167
 1635 0016 03B0     		add	sp, sp, #12
 1636              		.cfi_remember_state
 1637              		.cfi_def_cfa_offset 4
 1638              		@ sp needed
 1639 0018 5DF804FB 		ldr	pc, [sp], #4
 1640              	.L167:
 1641              		.cfi_restore_state
 1642 001c FFF7FEFF 		bl	__stack_chk_fail
 1643              	.LVL154:
 1644              	.L169:
 1645              		.align	2
 1646              	.L168:
 1647 0020 00000000 		.word	__stack_chk_guard
 1648 0024 00000000 		.word	.LANCHOR9
 1649              		.cfi_endproc
 1650              	.LFE263:
 1651              		.size	get_parcours_etat, .-get_parcours_etat
 1652              		.section	.text.get_parcours_nouvelle_commande,"ax",%progbits
 1653              		.align	1
ARM GAS  C:\Users\guill\AppData\Local\Temp\ccUE1NwH.s 			page 30


 1654              		.p2align 4,,15
 1655              		.global	get_parcours_nouvelle_commande
 1656              		.syntax unified
 1657              		.thumb
 1658              		.thumb_func
 1659              		.fpu fpv4-sp-d16
 1660              		.type	get_parcours_nouvelle_commande, %function
 1661              	get_parcours_nouvelle_commande:
 1662              	.LFB264:
 1663              		.loc 1 377 0
 1664              		.cfi_startproc
 1665              		@ args = 0, pretend = 0, frame = 8
 1666              		@ frame_needed = 0, uses_anonymous_args = 0
 1667 0000 00B5     		push	{lr}
 1668              		.cfi_def_cfa_offset 4
 1669              		.cfi_offset 14, -4
 1670 0002 074B     		ldr	r3, .L174
 1671              		.loc 1 378 0
 1672 0004 0749     		ldr	r1, .L174+4
 1673              		.loc 1 377 0
 1674 0006 1A68     		ldr	r2, [r3]
 1675              		.loc 1 379 0
 1676 0008 0878     		ldrb	r0, [r1]	@ zero_extendqisi2
 1677              		.loc 1 377 0
 1678 000a 83B0     		sub	sp, sp, #12
 1679              		.cfi_def_cfa_offset 16
 1680              		.loc 1 377 0
 1681 000c 0192     		str	r2, [sp, #4]
 1682              		.loc 1 379 0
 1683 000e 019A     		ldr	r2, [sp, #4]
 1684 0010 1B68     		ldr	r3, [r3]
 1685 0012 9A42     		cmp	r2, r3
 1686 0014 02D1     		bne	.L173
 1687 0016 03B0     		add	sp, sp, #12
 1688              		.cfi_remember_state
 1689              		.cfi_def_cfa_offset 4
 1690              		@ sp needed
 1691 0018 5DF804FB 		ldr	pc, [sp], #4
 1692              	.L173:
 1693              		.cfi_restore_state
 1694 001c FFF7FEFF 		bl	__stack_chk_fail
 1695              	.LVL155:
 1696              	.L175:
 1697              		.align	2
 1698              	.L174:
 1699 0020 00000000 		.word	__stack_chk_guard
 1700 0024 00000000 		.word	.LANCHOR3
 1701              		.cfi_endproc
 1702              	.LFE264:
 1703              		.size	get_parcours_nouvelle_commande, .-get_parcours_nouvelle_commande
 1704              		.section	.text.get_parcours_angle,"ax",%progbits
 1705              		.align	1
 1706              		.p2align 4,,15
 1707              		.global	get_parcours_angle
 1708              		.syntax unified
 1709              		.thumb
 1710              		.thumb_func
ARM GAS  C:\Users\guill\AppData\Local\Temp\ccUE1NwH.s 			page 31


 1711              		.fpu fpv4-sp-d16
 1712              		.type	get_parcours_angle, %function
 1713              	get_parcours_angle:
 1714              	.LFB265:
 1715              		.loc 1 382 0
 1716              		.cfi_startproc
 1717              		@ args = 0, pretend = 0, frame = 8
 1718              		@ frame_needed = 0, uses_anonymous_args = 0
 1719 0000 00B5     		push	{lr}
 1720              		.cfi_def_cfa_offset 4
 1721              		.cfi_offset 14, -4
 1722 0002 084B     		ldr	r3, .L180
 1723              		.loc 1 383 0
 1724 0004 0849     		ldr	r1, .L180+4
 1725              		.loc 1 382 0
 1726 0006 1A68     		ldr	r2, [r3]
 1727              		.loc 1 384 0
 1728 0008 91ED000A 		vldr.32	s0, [r1]
 1729              		.loc 1 382 0
 1730 000c 83B0     		sub	sp, sp, #12
 1731              		.cfi_def_cfa_offset 16
 1732              		.loc 1 382 0
 1733 000e 0192     		str	r2, [sp, #4]
 1734              		.loc 1 384 0
 1735 0010 019A     		ldr	r2, [sp, #4]
 1736 0012 1B68     		ldr	r3, [r3]
 1737 0014 9A42     		cmp	r2, r3
 1738 0016 02D1     		bne	.L179
 1739 0018 03B0     		add	sp, sp, #12
 1740              		.cfi_remember_state
 1741              		.cfi_def_cfa_offset 4
 1742              		@ sp needed
 1743 001a 5DF804FB 		ldr	pc, [sp], #4
 1744              	.L179:
 1745              		.cfi_restore_state
 1746 001e FFF7FEFF 		bl	__stack_chk_fail
 1747              	.LVL156:
 1748              	.L181:
 1749 0022 00BF     		.align	2
 1750              	.L180:
 1751 0024 00000000 		.word	__stack_chk_guard
 1752 0028 00000000 		.word	.LANCHOR0
 1753              		.cfi_endproc
 1754              	.LFE265:
 1755              		.size	get_parcours_angle, .-get_parcours_angle
 1756              		.section	.text.parcours_start,"ax",%progbits
 1757              		.align	1
 1758              		.p2align 4,,15
 1759              		.global	parcours_start
 1760              		.syntax unified
 1761              		.thumb
 1762              		.thumb_func
 1763              		.fpu fpv4-sp-d16
 1764              		.type	parcours_start, %function
 1765              	parcours_start:
 1766              	.LFB267:
 1767              		.loc 1 439 0
ARM GAS  C:\Users\guill\AppData\Local\Temp\ccUE1NwH.s 			page 32


 1768              		.cfi_startproc
 1769              		@ args = 0, pretend = 0, frame = 8
 1770              		@ frame_needed = 0, uses_anonymous_args = 0
 1771 0000 10B5     		push	{r4, lr}
 1772              		.cfi_def_cfa_offset 8
 1773              		.cfi_offset 4, -8
 1774              		.cfi_offset 14, -4
 1775 0002 0A4C     		ldr	r4, .L186
 1776              		.loc 1 440 0
 1777 0004 0A4B     		ldr	r3, .L186+4
 1778              		.loc 1 439 0
 1779 0006 2268     		ldr	r2, [r4]
 1780              		.loc 1 440 0
 1781 0008 0A48     		ldr	r0, .L186+8
 1782              		.loc 1 439 0
 1783 000a 84B0     		sub	sp, sp, #16
 1784              		.cfi_def_cfa_offset 24
 1785              		.loc 1 440 0
 1786 000c 4FF41E71 		mov	r1, #632
 1787              		.loc 1 439 0
 1788 0010 0392     		str	r2, [sp, #12]
 1789              		.loc 1 440 0
 1790 0012 0022     		movs	r2, #0
 1791 0014 0092     		str	r2, [sp]
 1792 0016 4322     		movs	r2, #67
 1793 0018 FFF7FEFF 		bl	chThdCreateStatic
 1794              	.LVL157:
 1795              		.loc 1 441 0
 1796 001c 039A     		ldr	r2, [sp, #12]
 1797 001e 2368     		ldr	r3, [r4]
 1798 0020 9A42     		cmp	r2, r3
 1799 0022 01D1     		bne	.L185
 1800 0024 04B0     		add	sp, sp, #16
 1801              		.cfi_remember_state
 1802              		.cfi_def_cfa_offset 8
 1803              		@ sp needed
 1804 0026 10BD     		pop	{r4, pc}
 1805              	.L185:
 1806              		.cfi_restore_state
 1807 0028 FFF7FEFF 		bl	__stack_chk_fail
 1808              	.LVL158:
 1809              	.L187:
 1810              		.align	2
 1811              	.L186:
 1812 002c 00000000 		.word	__stack_chk_guard
 1813 0030 00000000 		.word	Parcours
 1814 0034 00000000 		.word	.LANCHOR19
 1815              		.cfi_endproc
 1816              	.LFE267:
 1817              		.size	parcours_start, .-parcours_start
 1818              		.section	.bss.aller_en_arriere,"aw",%nobits
 1819              		.set	.LANCHOR2,. + 0
 1820              		.type	aller_en_arriere, %object
 1821              		.size	aller_en_arriere, 1
 1822              	aller_en_arriere:
 1823 0000 00       		.space	1
 1824              		.section	.bss.aller_en_avant,"aw",%nobits
ARM GAS  C:\Users\guill\AppData\Local\Temp\ccUE1NwH.s 			page 33


 1825              		.set	.LANCHOR1,. + 0
 1826              		.type	aller_en_avant, %object
 1827              		.size	aller_en_avant, 1
 1828              	aller_en_avant:
 1829 0000 00       		.space	1
 1830              		.section	.bss.angle,"aw",%nobits
 1831              		.align	2
 1832              		.set	.LANCHOR0,. + 0
 1833              		.type	angle, %object
 1834              		.size	angle, 4
 1835              	angle:
 1836 0000 00000000 		.space	4
 1837              		.section	.bss.compteur_droite.12002,"aw",%nobits
 1838              		.align	2
 1839              		.set	.LANCHOR10,. + 0
 1840              		.type	compteur_droite.12002, %object
 1841              		.size	compteur_droite.12002, 4
 1842              	compteur_droite.12002:
 1843 0000 00000000 		.space	4
 1844              		.section	.bss.compteur_gauche.12003,"aw",%nobits
 1845              		.align	2
 1846              		.set	.LANCHOR12,. + 0
 1847              		.type	compteur_gauche.12003, %object
 1848              		.size	compteur_gauche.12003, 4
 1849              	compteur_gauche.12003:
 1850 0000 00000000 		.space	4
 1851              		.section	.bss.etat_contournement,"aw",%nobits
 1852              		.set	.LANCHOR9,. + 0
 1853              		.type	etat_contournement, %object
 1854              		.size	etat_contournement, 1
 1855              	etat_contournement:
 1856 0000 00       		.space	1
 1857              		.section	.bss.idle_lance.12040,"aw",%nobits
 1858              		.set	.LANCHOR18,. + 0
 1859              		.type	idle_lance.12040, %object
 1860              		.size	idle_lance.12040, 1
 1861              	idle_lance.12040:
 1862 0000 00       		.space	1
 1863              		.section	.bss.nouvelle_commande,"aw",%nobits
 1864              		.set	.LANCHOR3,. + 0
 1865              		.type	nouvelle_commande, %object
 1866              		.size	nouvelle_commande, 1
 1867              	nouvelle_commande:
 1868 0000 00       		.space	1
 1869              		.section	.bss.obstacle_cote_90.12005,"aw",%nobits
 1870              		.set	.LANCHOR13,. + 0
 1871              		.type	obstacle_cote_90.12005, %object
 1872              		.size	obstacle_cote_90.12005, 1
 1873              	obstacle_cote_90.12005:
 1874 0000 00       		.space	1
 1875              		.section	.bss.sum_error.11976,"aw",%nobits
 1876              		.align	1
 1877              		.set	.LANCHOR4,. + 0
 1878              		.type	sum_error.11976, %object
 1879              		.size	sum_error.11976, 2
 1880              	sum_error.11976:
 1881 0000 0000     		.space	2
ARM GAS  C:\Users\guill\AppData\Local\Temp\ccUE1NwH.s 			page 34


 1882              		.section	.bss.sum_error.11994,"aw",%nobits
 1883              		.align	2
 1884              		.set	.LANCHOR8,. + 0
 1885              		.type	sum_error.11994, %object
 1886              		.size	sum_error.11994, 4
 1887              	sum_error.11994:
 1888 0000 00000000 		.space	4
 1889              		.section	.bss.temps_retenu.12042,"aw",%nobits
 1890              		.set	.LANCHOR16,. + 0
 1891              		.type	temps_retenu.12042, %object
 1892              		.size	temps_retenu.12042, 1
 1893              	temps_retenu.12042:
 1894 0000 00       		.space	1
 1895              		.section	.bss.time_start.12036,"aw",%nobits
 1896              		.align	2
 1897              		.set	.LANCHOR17,. + 0
 1898              		.type	time_start.12036, %object
 1899              		.size	time_start.12036, 4
 1900              	time_start.12036:
 1901 0000 00000000 		.space	4
 1902              		.section	.bss.tourner_a_gauche.12004,"aw",%nobits
 1903              		.set	.LANCHOR11,. + 0
 1904              		.type	tourner_a_gauche.12004, %object
 1905              		.size	tourner_a_gauche.12004, 1
 1906              	tourner_a_gauche.12004:
 1907 0000 00       		.space	1
 1908              		.section	.bss.vitesse_droite,"aw",%nobits
 1909              		.align	1
 1910              		.set	.LANCHOR5,. + 0
 1911              		.type	vitesse_droite, %object
 1912              		.size	vitesse_droite, 2
 1913              	vitesse_droite:
 1914 0000 0000     		.space	2
 1915              		.section	.bss.vitesse_gauche,"aw",%nobits
 1916              		.align	1
 1917              		.set	.LANCHOR6,. + 0
 1918              		.type	vitesse_gauche, %object
 1919              		.size	vitesse_gauche, 2
 1920              	vitesse_gauche:
 1921 0000 0000     		.space	2
 1922              		.section	.bss.waParcours,"aw",%nobits
 1923              		.align	3
 1924              		.set	.LANCHOR19,. + 0
 1925              		.type	waParcours, %object
 1926              		.size	waParcours, 632
 1927              	waParcours:
 1928 0000 00000000 		.space	632
 1928      00000000 
 1928      00000000 
 1928      00000000 
 1928      00000000 
 1929              		.section	.data.etat_parcours.11982,"aw",%progbits
 1930              		.set	.LANCHOR7,. + 0
 1931              		.type	etat_parcours.11982, %object
 1932              		.size	etat_parcours.11982, 1
 1933              	etat_parcours.11982:
 1934 0000 04       		.byte	4
ARM GAS  C:\Users\guill\AppData\Local\Temp\ccUE1NwH.s 			page 35


 1935              		.section	.rodata.__FUNCTION__.12034,"a",%progbits
 1936              		.align	2
 1937              		.set	.LANCHOR14,. + 0
 1938              		.type	__FUNCTION__.12034, %object
 1939              		.size	__FUNCTION__.12034, 9
 1940              	__FUNCTION__.12034:
 1941 0000 50617263 		.ascii	"Parcours\000"
 1941      6F757273 
 1941      00
 1942              		.section	.rodata.__func__.7172,"a",%progbits
 1943              		.align	2
 1944              		.set	.LANCHOR15,. + 0
 1945              		.type	__func__.7172, %object
 1946              		.size	__func__.7172, 12
 1947              	__func__.7172:
 1948 0000 63685379 		.ascii	"chSysUnlock\000"
 1948      73556E6C 
 1948      6F636B00 
 1949              		.text
 1950              	.Letext0:
 1951              		.file 6 "c:\\microinfo\\eclipse_e-puck2\\tools\\gcc-arm-none-eabi-7-2017-q4-major-win32\\arm-none-
 1952              		.file 7 "c:\\microinfo\\eclipse_e-puck2\\tools\\gcc-arm-none-eabi-7-2017-q4-major-win32\\arm-none-
 1953              		.file 8 "c:\\microinfo\\eclipse_e-puck2\\tools\\gcc-arm-none-eabi-7-2017-q4-major-win32\\lib\\gcc\
 1954              		.file 9 "../../lib/e-puck2_main-processor/ChibiOS//os/rt/ports/ARMCMx/compilers/GCC/chtypes.h"
 1955              		.file 10 "../../lib/e-puck2_main-processor/ChibiOS//os/rt/include/chsystypes.h"
 1956              		.file 11 "../../lib/e-puck2_main-processor/ChibiOS//os/rt/include/chschd.h"
 1957              		.file 12 "../../lib/e-puck2_main-processor/ChibiOS//os/ext/CMSIS/include/core_cm4.h"
 1958              		.file 13 "../../lib/e-puck2_main-processor/ChibiOS//os/ext/CMSIS/ST/system_stm32f4xx.h"
 1959              		.file 14 "../../lib/e-puck2_main-processor/ChibiOS//os/ext/CMSIS/ST/stm32f407xx.h"
 1960              		.file 15 "../../lib/e-puck2_main-processor/ChibiOS//os/rt/ports/ARMCMx/chcore.h"
 1961              		.file 16 "../../lib/e-puck2_main-processor/ChibiOS//os/rt/ports/ARMCMx/chcore_v7m.h"
 1962              		.file 17 "../../lib/e-puck2_main-processor/ChibiOS//os/rt/include/chdebug.h"
 1963              		.file 18 "../../lib/e-puck2_main-processor/ChibiOS//os/rt/include/chtm.h"
 1964              		.file 19 "../../lib/e-puck2_main-processor/ChibiOS//os/rt/include/chstats.h"
 1965              		.file 20 "../../lib/e-puck2_main-processor/ChibiOS//os/rt/include/chsem.h"
 1966              		.file 21 "../../lib/e-puck2_main-processor/ChibiOS//os/rt/include/chmtx.h"
 1967              		.file 22 "../../lib/e-puck2_main-processor/ChibiOS//os/rt/include/chevents.h"
 1968              		.file 23 "../../lib/e-puck2_main-processor/ChibiOS//os/rt/include/chqueues.h"
 1969              		.file 24 "../../lib/e-puck2_main-processor/ChibiOS//os/hal/ports/STM32/STM32F4xx/stm32_dma.h"
 1970              		.file 25 "../../lib/e-puck2_main-processor/ChibiOS//os/hal/include/hal_ioblock.h"
 1971              		.file 26 "../../lib/e-puck2_main-processor/ChibiOS//os/hal/ports/STM32/LLD/GPIOv2/pal_lld.h"
 1972              		.file 27 "../../lib/e-puck2_main-processor/ChibiOS//os/hal/include/adc.h"
 1973              		.file 28 "../../lib/e-puck2_main-processor/ChibiOS//os/hal/ports/STM32/STM32F4xx/adc_lld.h"
 1974              		.file 29 "../../lib/e-puck2_main-processor/ChibiOS//os/hal/include/can.h"
 1975              		.file 30 "../../lib/e-puck2_main-processor/ChibiOS//os/hal/ports/STM32/LLD/can_lld.h"
 1976              		.file 31 "../../lib/e-puck2_main-processor/ChibiOS//os/hal/include/dac.h"
 1977              		.file 32 "../../lib/e-puck2_main-processor/ChibiOS//os/hal/ports/STM32/LLD/DACv1/dac_lld.h"
 1978              		.file 33 "../../lib/e-puck2_main-processor/ChibiOS//os/hal/include/ext.h"
 1979              		.file 34 "../../lib/e-puck2_main-processor/ChibiOS//os/hal/ports/STM32/LLD/ext_lld.h"
 1980              		.file 35 "../../lib/e-puck2_main-processor/ChibiOS//os/hal/include/gpt.h"
 1981              		.file 36 "../../lib/e-puck2_main-processor/ChibiOS//os/hal/ports/STM32/LLD/TIMv1/gpt_lld.h"
 1982              		.file 37 "../../lib/e-puck2_main-processor/ChibiOS//os/hal/ports/STM32/LLD/TIMv1/stm32_tim.h"
 1983              		.file 38 "../../lib/e-puck2_main-processor/ChibiOS//os/hal/include/i2c.h"
 1984              		.file 39 "../../lib/e-puck2_main-processor/ChibiOS//os/hal/ports/STM32/LLD/I2Cv1/i2c_lld.h"
 1985              		.file 40 "../../lib/e-puck2_main-processor/ChibiOS//os/hal/include/i2s.h"
 1986              		.file 41 "../../lib/e-puck2_main-processor/ChibiOS//os/hal/ports/STM32/LLD/SPIv1/i2s_lld.h"
 1987              		.file 42 "../../lib/e-puck2_main-processor/ChibiOS//os/hal/include/pwm.h"
ARM GAS  C:\Users\guill\AppData\Local\Temp\ccUE1NwH.s 			page 36


 1988              		.file 43 "../../lib/e-puck2_main-processor/ChibiOS//os/hal/ports/STM32/LLD/TIMv1/pwm_lld.h"
 1989              		.file 44 "../../lib/e-puck2_main-processor/ChibiOS//os/hal/include/serial.h"
 1990              		.file 45 "../../lib/e-puck2_main-processor/ChibiOS//os/hal/ports/STM32/LLD/USARTv1/serial_lld.h"
 1991              		.file 46 "../../lib/e-puck2_main-processor/ChibiOS//os/hal/include/sdc.h"
 1992              		.file 47 "../../lib/e-puck2_main-processor/ChibiOS//os/hal/ports/STM32/LLD/sdc_lld.h"
 1993              		.file 48 "../../lib/e-puck2_main-processor/ChibiOS//os/hal/include/spi.h"
 1994              		.file 49 "../../lib/e-puck2_main-processor/ChibiOS//os/hal/ports/STM32/LLD/SPIv1/spi_lld.h"
 1995              		.file 50 "../../lib/e-puck2_main-processor/ChibiOS//os/hal/include/usb.h"
 1996              		.file 51 "../../lib/e-puck2_main-processor/ChibiOS//os/hal/ports/STM32/LLD/OTGv1/usb_lld.h"
 1997              		.file 52 "../../lib/e-puck2_main-processor/ChibiOS//os/hal/ports/STM32/LLD/OTGv1/stm32_otg.h"
 1998              		.file 53 "../../lib/e-puck2_main-processor/ChibiOS_ext/os/hal/include/../ports/STM32/STM32F4xx/dcm
 1999              		.file 54 "c:\\microinfo\\eclipse_e-puck2\\tools\\gcc-arm-none-eabi-7-2017-q4-major-win32\\arm-none
 2000              		.file 55 "c:\\microinfo\\eclipse_e-puck2\\tools\\gcc-arm-none-eabi-7-2017-q4-major-win32\\arm-none
 2001              		.file 56 "c:\\microinfo\\eclipse_e-puck2\\tools\\gcc-arm-none-eabi-7-2017-q4-major-win32\\arm-none
 2002              		.file 57 "../../lib/e-puck2_main-processor/src/msgbus/messagebus.h"
 2003              		.file 58 "c:\\microinfo\\eclipse_e-puck2\\tools\\gcc-arm-none-eabi-7-2017-q4-major-win32\\arm-none
 2004              		.file 59 "c:\\microinfo\\eclipse_e-puck2\\tools\\gcc-arm-none-eabi-7-2017-q4-major-win32\\arm-none
 2005              		.file 60 "../../lib/e-puck2_main-processor/src/parameter/parameter.h"
 2006              		.file 61 "./main.h"
 2007              		.file 62 "c:\\microinfo\\eclipse_e-puck2\\tools\\gcc-arm-none-eabi-7-2017-q4-major-win32\\arm-none
 2008              		.file 63 "../../lib/e-puck2_main-processor/ChibiOS//os/rt/include/chthreads.h"
 2009              		.file 64 "./traitement_son.h"
 2010              		.file 65 "reception_capteur_IR.h"
 2011              		.file 66 "../../lib/e-puck2_main-processor/src/motors.h"
 2012              		.file 67 "animations.h"