ARM GAS  C:\Users\41786\AppData\Local\Temp\ccQWef1a.s 			page 1


   1              		.cpu cortex-m4
   2              		.eabi_attribute 27, 1
   3              		.eabi_attribute 28, 1
   4              		.eabi_attribute 20, 1
   5              		.eabi_attribute 21, 1
   6              		.eabi_attribute 23, 3
   7              		.eabi_attribute 24, 1
   8              		.eabi_attribute 25, 1
   9              		.eabi_attribute 26, 1
  10              		.eabi_attribute 30, 2
  11              		.eabi_attribute 34, 1
  12              		.eabi_attribute 18, 4
  13              		.file	"reception_capteur_IR.c"
  14              		.text
  15              	.Ltext0:
  16              		.cfi_sections	.debug_frame
  17              		.section	.text.check_chemin,"ax",%progbits
  18              		.align	1
  19              		.p2align 4,,15
  20              		.global	check_chemin
  21              		.syntax unified
  22              		.thumb
  23              		.thumb_func
  24              		.fpu fpv4-sp-d16
  25              		.type	check_chemin, %function
  26              	check_chemin:
  27              	.LFB0:
  28              		.file 1 "reception_capteur_IR.c"
  29              		.loc 1 14 0
  30              		.cfi_startproc
  31              		@ args = 0, pretend = 0, frame = 8
  32              		@ frame_needed = 0, uses_anonymous_args = 0
  33 0000 00B5     		push	{lr}
  34              		.cfi_def_cfa_offset 4
  35              		.cfi_offset 14, -4
  36 0002 084B     		ldr	r3, .L6
  37              		.loc 1 15 0
  38 0004 0849     		ldr	r1, .L6+4
  39              		.loc 1 14 0
  40 0006 1A68     		ldr	r2, [r3]
  41              		.loc 1 15 0
  42 0008 C879     		ldrb	r0, [r1, #7]	@ zero_extendqisi2
  43              		.loc 1 14 0
  44 000a 83B0     		sub	sp, sp, #12
  45              		.cfi_def_cfa_offset 16
  46              		.loc 1 14 0
  47 000c 0192     		str	r2, [sp, #4]
  48              		.loc 1 20 0
  49 000e 019A     		ldr	r2, [sp, #4]
  50 0010 1B68     		ldr	r3, [r3]
  51 0012 9A42     		cmp	r2, r3
  52 0014 04D1     		bne	.L5
  53 0016 80F00100 		eor	r0, r0, #1
  54 001a 03B0     		add	sp, sp, #12
  55              		.cfi_remember_state
  56              		.cfi_def_cfa_offset 4
  57              		@ sp needed
ARM GAS  C:\Users\41786\AppData\Local\Temp\ccQWef1a.s 			page 2


  58 001c 5DF804FB 		ldr	pc, [sp], #4
  59              	.L5:
  60              		.cfi_restore_state
  61 0020 FFF7FEFF 		bl	__stack_chk_fail
  62              	.LVL0:
  63              	.L7:
  64              		.align	2
  65              	.L6:
  66 0024 00000000 		.word	__stack_chk_guard
  67 0028 00000000 		.word	.LANCHOR0
  68              		.cfi_endproc
  69              	.LFE0:
  70              		.size	check_chemin, .-check_chemin
  71              		.section	.text.get_obstacle_condition,"ax",%progbits
  72              		.align	1
  73              		.p2align 4,,15
  74              		.global	get_obstacle_condition
  75              		.syntax unified
  76              		.thumb
  77              		.thumb_func
  78              		.fpu fpv4-sp-d16
  79              		.type	get_obstacle_condition, %function
  80              	get_obstacle_condition:
  81              	.LFB1:
  82              		.loc 1 24 0
  83              		.cfi_startproc
  84              		@ args = 0, pretend = 0, frame = 8
  85              		@ frame_needed = 0, uses_anonymous_args = 0
  86              	.LVL1:
  87 0000 00B5     		push	{lr}
  88              		.cfi_def_cfa_offset 4
  89              		.cfi_offset 14, -4
  90 0002 074B     		ldr	r3, .L12
  91              		.loc 1 25 0
  92 0004 0749     		ldr	r1, .L12+4
  93              		.loc 1 24 0
  94 0006 1A68     		ldr	r2, [r3]
  95              		.loc 1 26 0
  96 0008 085C     		ldrb	r0, [r1, r0]	@ zero_extendqisi2
  97              	.LVL2:
  98              		.loc 1 24 0
  99 000a 83B0     		sub	sp, sp, #12
 100              		.cfi_def_cfa_offset 16
 101              		.loc 1 24 0
 102 000c 0192     		str	r2, [sp, #4]
 103              		.loc 1 26 0
 104 000e 019A     		ldr	r2, [sp, #4]
 105 0010 1B68     		ldr	r3, [r3]
 106 0012 9A42     		cmp	r2, r3
 107 0014 02D1     		bne	.L11
 108 0016 03B0     		add	sp, sp, #12
 109              		.cfi_remember_state
 110              		.cfi_def_cfa_offset 4
 111              		@ sp needed
 112 0018 5DF804FB 		ldr	pc, [sp], #4
 113              	.L11:
 114              		.cfi_restore_state
ARM GAS  C:\Users\41786\AppData\Local\Temp\ccQWef1a.s 			page 3


 115 001c FFF7FEFF 		bl	__stack_chk_fail
 116              	.LVL3:
 117              	.L13:
 118              		.align	2
 119              	.L12:
 120 0020 00000000 		.word	__stack_chk_guard
 121 0024 00000000 		.word	.LANCHOR0
 122              		.cfi_endproc
 123              	.LFE1:
 124              		.size	get_obstacle_condition, .-get_obstacle_condition
 125              		.section	.text.get_valeur_capteur,"ax",%progbits
 126              		.align	1
 127              		.p2align 4,,15
 128              		.global	get_valeur_capteur
 129              		.syntax unified
 130              		.thumb
 131              		.thumb_func
 132              		.fpu fpv4-sp-d16
 133              		.type	get_valeur_capteur, %function
 134              	get_valeur_capteur:
 135              	.LFB2:
 136              		.loc 1 29 0
 137              		.cfi_startproc
 138              		@ args = 0, pretend = 0, frame = 8
 139              		@ frame_needed = 0, uses_anonymous_args = 0
 140              	.LVL4:
 141 0000 00B5     		push	{lr}
 142              		.cfi_def_cfa_offset 4
 143              		.cfi_offset 14, -4
 144 0002 084B     		ldr	r3, .L18
 145              		.loc 1 30 0
 146 0004 0849     		ldr	r1, .L18+4
 147              		.loc 1 29 0
 148 0006 1A68     		ldr	r2, [r3]
 149              		.loc 1 31 0
 150 0008 51F82000 		ldr	r0, [r1, r0, lsl #2]
 151              	.LVL5:
 152              		.loc 1 29 0
 153 000c 83B0     		sub	sp, sp, #12
 154              		.cfi_def_cfa_offset 16
 155              		.loc 1 29 0
 156 000e 0192     		str	r2, [sp, #4]
 157              		.loc 1 31 0
 158 0010 019A     		ldr	r2, [sp, #4]
 159 0012 1B68     		ldr	r3, [r3]
 160 0014 9A42     		cmp	r2, r3
 161 0016 02D1     		bne	.L17
 162 0018 03B0     		add	sp, sp, #12
 163              		.cfi_remember_state
 164              		.cfi_def_cfa_offset 4
 165              		@ sp needed
 166 001a 5DF804FB 		ldr	pc, [sp], #4
 167              	.L17:
 168              		.cfi_restore_state
 169 001e FFF7FEFF 		bl	__stack_chk_fail
 170              	.LVL6:
 171              	.L19:
ARM GAS  C:\Users\41786\AppData\Local\Temp\ccQWef1a.s 			page 4


 172 0022 00BF     		.align	2
 173              	.L18:
 174 0024 00000000 		.word	__stack_chk_guard
 175 0028 00000000 		.word	.LANCHOR1
 176              		.cfi_endproc
 177              	.LFE2:
 178              		.size	get_valeur_capteur, .-get_valeur_capteur
 179              		.section	.text.valeurs_ambiantes,"ax",%progbits
 180              		.align	1
 181              		.p2align 4,,15
 182              		.global	valeurs_ambiantes
 183              		.syntax unified
 184              		.thumb
 185              		.thumb_func
 186              		.fpu fpv4-sp-d16
 187              		.type	valeurs_ambiantes, %function
 188              	valeurs_ambiantes:
 189              	.LFB3:
 190              		.loc 1 35 0
 191              		.cfi_startproc
 192              		@ args = 0, pretend = 0, frame = 8
 193              		@ frame_needed = 0, uses_anonymous_args = 0
 194 0000 30B5     		push	{r4, r5, lr}
 195              		.cfi_def_cfa_offset 12
 196              		.cfi_offset 4, -12
 197              		.cfi_offset 5, -8
 198              		.cfi_offset 14, -4
 199 0002 094D     		ldr	r5, .L26
 200 0004 83B0     		sub	sp, sp, #12
 201              		.cfi_def_cfa_offset 24
 202              		.loc 1 35 0
 203 0006 2B68     		ldr	r3, [r5]
 204 0008 0193     		str	r3, [sp, #4]
 205              	.LVL7:
 206              	.LBB2:
 207              		.loc 1 36 0
 208 000a 0024     		movs	r4, #0
 209              	.LVL8:
 210              	.L21:
 211              		.loc 1 38 0 discriminator 3
 212 000c 2046     		mov	r0, r4
 213              		.loc 1 36 0 discriminator 3
 214 000e 0134     		adds	r4, r4, #1
 215              	.LVL9:
 216              		.loc 1 38 0 discriminator 3
 217 0010 FFF7FEFF 		bl	get_ambient_light
 218              	.LVL10:
 219              		.loc 1 36 0 discriminator 3
 220 0014 082C     		cmp	r4, #8
 221 0016 F9D1     		bne	.L21
 222              	.LBE2:
 223              		.loc 1 40 0
 224 0018 019A     		ldr	r2, [sp, #4]
 225 001a 2B68     		ldr	r3, [r5]
 226 001c 9A42     		cmp	r2, r3
 227 001e 01D1     		bne	.L25
 228 0020 03B0     		add	sp, sp, #12
ARM GAS  C:\Users\41786\AppData\Local\Temp\ccQWef1a.s 			page 5


 229              		.cfi_remember_state
 230              		.cfi_def_cfa_offset 12
 231              		@ sp needed
 232 0022 30BD     		pop	{r4, r5, pc}
 233              	.LVL11:
 234              	.L25:
 235              		.cfi_restore_state
 236 0024 FFF7FEFF 		bl	__stack_chk_fail
 237              	.LVL12:
 238              	.L27:
 239              		.align	2
 240              	.L26:
 241 0028 00000000 		.word	__stack_chk_guard
 242              		.cfi_endproc
 243              	.LFE3:
 244              		.size	valeurs_ambiantes, .-valeurs_ambiantes
 245              		.section	.text.valeurs_absolues,"ax",%progbits
 246              		.align	1
 247              		.p2align 4,,15
 248              		.global	valeurs_absolues
 249              		.syntax unified
 250              		.thumb
 251              		.thumb_func
 252              		.fpu fpv4-sp-d16
 253              		.type	valeurs_absolues, %function
 254              	valeurs_absolues:
 255              	.LFB4:
 256              		.loc 1 43 0
 257              		.cfi_startproc
 258              		@ args = 0, pretend = 0, frame = 8
 259              		@ frame_needed = 0, uses_anonymous_args = 0
 260 0000 30B5     		push	{r4, r5, lr}
 261              		.cfi_def_cfa_offset 12
 262              		.cfi_offset 4, -12
 263              		.cfi_offset 5, -8
 264              		.cfi_offset 14, -4
 265 0002 094D     		ldr	r5, .L34
 266 0004 83B0     		sub	sp, sp, #12
 267              		.cfi_def_cfa_offset 24
 268              		.loc 1 43 0
 269 0006 2B68     		ldr	r3, [r5]
 270 0008 0193     		str	r3, [sp, #4]
 271              	.LVL13:
 272              	.LBB3:
 273              		.loc 1 44 0
 274 000a 0024     		movs	r4, #0
 275              	.LVL14:
 276              	.L29:
 277              		.loc 1 46 0 discriminator 3
 278 000c 2046     		mov	r0, r4
 279              		.loc 1 44 0 discriminator 3
 280 000e 0134     		adds	r4, r4, #1
 281              	.LVL15:
 282              		.loc 1 46 0 discriminator 3
 283 0010 FFF7FEFF 		bl	get_prox
 284              	.LVL16:
 285              		.loc 1 44 0 discriminator 3
ARM GAS  C:\Users\41786\AppData\Local\Temp\ccQWef1a.s 			page 6


 286 0014 082C     		cmp	r4, #8
 287 0016 F9D1     		bne	.L29
 288              	.LBE3:
 289              		.loc 1 48 0
 290 0018 019A     		ldr	r2, [sp, #4]
 291 001a 2B68     		ldr	r3, [r5]
 292 001c 9A42     		cmp	r2, r3
 293 001e 01D1     		bne	.L33
 294 0020 03B0     		add	sp, sp, #12
 295              		.cfi_remember_state
 296              		.cfi_def_cfa_offset 12
 297              		@ sp needed
 298 0022 30BD     		pop	{r4, r5, pc}
 299              	.LVL17:
 300              	.L33:
 301              		.cfi_restore_state
 302 0024 FFF7FEFF 		bl	__stack_chk_fail
 303              	.LVL18:
 304              	.L35:
 305              		.align	2
 306              	.L34:
 307 0028 00000000 		.word	__stack_chk_guard
 308              		.cfi_endproc
 309              	.LFE4:
 310              		.size	valeurs_absolues, .-valeurs_absolues
 311              		.section	.text.valeurs_calibrees,"ax",%progbits
 312              		.align	1
 313              		.p2align 4,,15
 314              		.global	valeurs_calibrees
 315              		.syntax unified
 316              		.thumb
 317              		.thumb_func
 318              		.fpu fpv4-sp-d16
 319              		.type	valeurs_calibrees, %function
 320              	valeurs_calibrees:
 321              	.LFB5:
 322              		.loc 1 51 0
 323              		.cfi_startproc
 324              		@ args = 0, pretend = 0, frame = 8
 325              		@ frame_needed = 0, uses_anonymous_args = 0
 326 0000 2DE9F043 		push	{r4, r5, r6, r7, r8, r9, lr}
 327              		.cfi_def_cfa_offset 28
 328              		.cfi_offset 4, -28
 329              		.cfi_offset 5, -24
 330              		.cfi_offset 6, -20
 331              		.cfi_offset 7, -16
 332              		.cfi_offset 8, -12
 333              		.cfi_offset 9, -8
 334              		.cfi_offset 14, -4
 335 0004 DFF84880 		ldr	r8, .L44+4
 336 0008 DFF84890 		ldr	r9, .L44+8
 337 000c D8F80030 		ldr	r3, [r8]
 338 0010 0E4F     		ldr	r7, .L44
 339 0012 83B0     		sub	sp, sp, #12
 340              		.cfi_def_cfa_offset 40
 341              	.LBB4:
 342              		.loc 1 52 0
ARM GAS  C:\Users\41786\AppData\Local\Temp\ccQWef1a.s 			page 7


 343 0014 0024     		movs	r4, #0
 344              	.LBE4:
 345              		.loc 1 51 0
 346 0016 0193     		str	r3, [sp, #4]
 347              	.LVL19:
 348              	.LBB5:
 349              		.loc 1 63 0
 350 0018 2646     		mov	r6, r4
 351              		.loc 1 58 0
 352 001a 0125     		movs	r5, #1
 353              	.LVL20:
 354              	.L39:
 355              		.loc 1 55 0
 356 001c 2046     		mov	r0, r4
 357 001e FFF7FEFF 		bl	get_calibrated_prox
 358              	.LVL21:
 359              		.loc 1 58 0
 360 0022 9628     		cmp	r0, #150
 361 0024 34BF     		ite	cc
 362 0026 3346     		movcc	r3, r6
 363 0028 2B46     		movcs	r3, r5
 364 002a 3B55     		strb	r3, [r7, r4]
 365              		.loc 1 52 0
 366 002c 0134     		adds	r4, r4, #1
 367              	.LVL22:
 368 002e 082C     		cmp	r4, #8
 369              		.loc 1 55 0
 370 0030 49F8040F 		str	r0, [r9, #4]!
 371              		.loc 1 52 0
 372 0034 F2D1     		bne	.L39
 373              	.LBE5:
 374              		.loc 1 66 0
 375 0036 019A     		ldr	r2, [sp, #4]
 376 0038 D8F80030 		ldr	r3, [r8]
 377 003c 9A42     		cmp	r2, r3
 378 003e 02D1     		bne	.L43
 379 0040 03B0     		add	sp, sp, #12
 380              		.cfi_remember_state
 381              		.cfi_def_cfa_offset 28
 382              		@ sp needed
 383 0042 BDE8F083 		pop	{r4, r5, r6, r7, r8, r9, pc}
 384              	.LVL23:
 385              	.L43:
 386              		.cfi_restore_state
 387 0046 FFF7FEFF 		bl	__stack_chk_fail
 388              	.LVL24:
 389              	.L45:
 390 004a 00BF     		.align	2
 391              	.L44:
 392 004c 00000000 		.word	.LANCHOR0
 393 0050 00000000 		.word	__stack_chk_guard
 394 0054 FCFFFFFF 		.word	.LANCHOR1-4
 395              		.cfi_endproc
 396              	.LFE5:
 397              		.size	valeurs_calibrees, .-valeurs_calibrees
 398              		.section	.bss.obstacle,"aw",%nobits
 399              		.align	2
ARM GAS  C:\Users\41786\AppData\Local\Temp\ccQWef1a.s 			page 8


 400              		.set	.LANCHOR0,. + 0
 401              		.type	obstacle, %object
 402              		.size	obstacle, 8
 403              	obstacle:
 404 0000 00000000 		.space	8
 404      00000000 
 405              		.section	.bss.val_calibrees,"aw",%nobits
 406              		.align	2
 407              		.set	.LANCHOR1,. + 0
 408              		.type	val_calibrees, %object
 409              		.size	val_calibrees, 32
 410              	val_calibrees:
 411 0000 00000000 		.space	32
 411      00000000 
 411      00000000 
 411      00000000 
 411      00000000 
 412              		.text
 413              	.Letext0:
 414              		.file 2 "c:\\users\\41786\\desktop\\epfl\\microinfo\\eclipse_e-puck2\\tools\\gcc-arm-none-eabi-7-2
 415              		.file 3 "c:\\users\\41786\\desktop\\epfl\\microinfo\\eclipse_e-puck2\\tools\\gcc-arm-none-eabi-7-2
 416              		.file 4 "../../lib/e-puck2_main-processor/src/sensors/proximity.h"
 417              		.file 5 "reception_capteur_IR.h"
 418              		.section	.debug_info,"",%progbits
 419              	.Ldebug_info0:
 420 0000 BC020000 		.4byte	0x2bc
 421 0004 0400     		.2byte	0x4
 422 0006 00000000 		.4byte	.Ldebug_abbrev0
 423 000a 04       		.byte	0x4
 424 000b 01       		.uleb128 0x1
 425 000c 87010000 		.4byte	.LASF36
 426 0010 0C       		.byte	0xc
 427 0011 27000000 		.4byte	.LASF37
 428 0015 90000000 		.4byte	.LASF38
 429 0019 18000000 		.4byte	.Ldebug_ranges0+0x18
 430 001d 00000000 		.4byte	0
 431 0021 00000000 		.4byte	.Ldebug_line0
 432 0025 02       		.uleb128 0x2
 433 0026 01       		.byte	0x1
 434 0027 06       		.byte	0x6
 435 0028 A0030000 		.4byte	.LASF0
 436 002c 02       		.uleb128 0x2
 437 002d 01       		.byte	0x1
 438 002e 08       		.byte	0x8
 439 002f 82000000 		.4byte	.LASF1
 440 0033 02       		.uleb128 0x2
 441 0034 02       		.byte	0x2
 442 0035 05       		.byte	0x5
 443 0036 75030000 		.4byte	.LASF2
 444 003a 02       		.uleb128 0x2
 445 003b 02       		.byte	0x2
 446 003c 07       		.byte	0x7
 447 003d FF000000 		.4byte	.LASF3
 448 0041 03       		.uleb128 0x3
 449 0042 00000000 		.4byte	.LASF5
 450 0046 02       		.byte	0x2
 451 0047 4D       		.byte	0x4d
ARM GAS  C:\Users\41786\AppData\Local\Temp\ccQWef1a.s 			page 9


 452 0048 4C000000 		.4byte	0x4c
 453 004c 02       		.uleb128 0x2
 454 004d 04       		.byte	0x4
 455 004e 05       		.byte	0x5
 456 004f 97030000 		.4byte	.LASF4
 457 0053 03       		.uleb128 0x3
 458 0054 73010000 		.4byte	.LASF6
 459 0058 02       		.byte	0x2
 460 0059 4F       		.byte	0x4f
 461 005a 5E000000 		.4byte	0x5e
 462 005e 02       		.uleb128 0x2
 463 005f 04       		.byte	0x4
 464 0060 07       		.byte	0x7
 465 0061 D9000000 		.4byte	.LASF7
 466 0065 02       		.uleb128 0x2
 467 0066 08       		.byte	0x8
 468 0067 05       		.byte	0x5
 469 0068 24030000 		.4byte	.LASF8
 470 006c 02       		.uleb128 0x2
 471 006d 08       		.byte	0x8
 472 006e 07       		.byte	0x7
 473 006f E9020000 		.4byte	.LASF9
 474 0073 04       		.uleb128 0x4
 475 0074 04       		.byte	0x4
 476 0075 05       		.byte	0x5
 477 0076 696E7400 		.ascii	"int\000"
 478 007a 02       		.uleb128 0x2
 479 007b 04       		.byte	0x4
 480 007c 07       		.byte	0x7
 481 007d CB020000 		.4byte	.LASF10
 482 0081 03       		.uleb128 0x3
 483 0082 1C030000 		.4byte	.LASF11
 484 0086 03       		.byte	0x3
 485 0087 2C       		.byte	0x2c
 486 0088 41000000 		.4byte	0x41
 487 008c 03       		.uleb128 0x3
 488 008d 8E030000 		.4byte	.LASF12
 489 0091 03       		.byte	0x3
 490 0092 30       		.byte	0x30
 491 0093 53000000 		.4byte	0x53
 492 0097 05       		.uleb128 0x5
 493 0098 07       		.byte	0x7
 494 0099 01       		.byte	0x1
 495 009a 2C000000 		.4byte	0x2c
 496 009e 05       		.byte	0x5
 497 009f 08       		.byte	0x8
 498 00a0 D5000000 		.4byte	0xd5
 499 00a4 06       		.uleb128 0x6
 500 00a5 61030000 		.4byte	.LASF13
 501 00a9 00       		.byte	0
 502 00aa 06       		.uleb128 0x6
 503 00ab C2000000 		.4byte	.LASF14
 504 00af 01       		.byte	0x1
 505 00b0 06       		.uleb128 0x6
 506 00b1 18000000 		.4byte	.LASF15
 507 00b5 02       		.byte	0x2
 508 00b6 06       		.uleb128 0x6
ARM GAS  C:\Users\41786\AppData\Local\Temp\ccQWef1a.s 			page 10


 509 00b7 00030000 		.4byte	.LASF16
 510 00bb 03       		.byte	0x3
 511 00bc 06       		.uleb128 0x6
 512 00bd 24010000 		.4byte	.LASF17
 513 00c1 04       		.byte	0x4
 514 00c2 06       		.uleb128 0x6
 515 00c3 7F030000 		.4byte	.LASF18
 516 00c7 05       		.byte	0x5
 517 00c8 06       		.uleb128 0x6
 518 00c9 37010000 		.4byte	.LASF19
 519 00cd 06       		.byte	0x6
 520 00ce 06       		.uleb128 0x6
 521 00cf 5C010000 		.4byte	.LASF20
 522 00d3 07       		.byte	0x7
 523 00d4 00       		.byte	0
 524 00d5 07       		.uleb128 0x7
 525 00d6 8C000000 		.4byte	0x8c
 526 00da E5000000 		.4byte	0xe5
 527 00de 08       		.uleb128 0x8
 528 00df 7A000000 		.4byte	0x7a
 529 00e3 07       		.byte	0x7
 530 00e4 00       		.byte	0
 531 00e5 09       		.uleb128 0x9
 532 00e6 74000000 		.4byte	.LASF21
 533 00ea 01       		.byte	0x1
 534 00eb 04       		.byte	0x4
 535 00ec D5000000 		.4byte	0xd5
 536 00f0 09       		.uleb128 0x9
 537 00f1 41030000 		.4byte	.LASF22
 538 00f5 01       		.byte	0x1
 539 00f6 06       		.byte	0x6
 540 00f7 D5000000 		.4byte	0xd5
 541 00fb 0A       		.uleb128 0xa
 542 00fc 0A000000 		.4byte	.LASF24
 543 0100 01       		.byte	0x1
 544 0101 08       		.byte	0x8
 545 0102 D5000000 		.4byte	0xd5
 546 0106 05       		.uleb128 0x5
 547 0107 03       		.byte	0x3
 548 0108 00000000 		.4byte	val_calibrees
 549 010c 07       		.uleb128 0x7
 550 010d 1C010000 		.4byte	0x11c
 551 0111 1C010000 		.4byte	0x11c
 552 0115 08       		.uleb128 0x8
 553 0116 7A000000 		.4byte	0x7a
 554 011a 07       		.byte	0x7
 555 011b 00       		.byte	0
 556 011c 02       		.uleb128 0x2
 557 011d 01       		.byte	0x1
 558 011e 02       		.byte	0x2
 559 011f AC030000 		.4byte	.LASF23
 560 0123 0A       		.uleb128 0xa
 561 0124 7E010000 		.4byte	.LASF25
 562 0128 01       		.byte	0x1
 563 0129 0A       		.byte	0xa
 564 012a 0C010000 		.4byte	0x10c
 565 012e 05       		.uleb128 0x5
ARM GAS  C:\Users\41786\AppData\Local\Temp\ccQWef1a.s 			page 11


 566 012f 03       		.byte	0x3
 567 0130 00000000 		.4byte	obstacle
 568 0134 0B       		.uleb128 0xb
 569 0135 B2030000 		.4byte	.LASF26
 570 0139 01       		.byte	0x1
 571 013a 32       		.byte	0x32
 572 013b 00000000 		.4byte	.LFB5
 573 013f 58000000 		.4byte	.LFE5-.LFB5
 574 0143 01       		.uleb128 0x1
 575 0144 9C       		.byte	0x9c
 576 0145 7A010000 		.4byte	0x17a
 577 0149 0C       		.uleb128 0xc
 578 014a 00000000 		.4byte	.Ldebug_ranges0+0
 579 014e 70010000 		.4byte	0x170
 580 0152 0D       		.uleb128 0xd
 581 0153 6900     		.ascii	"i\000"
 582 0155 01       		.byte	0x1
 583 0156 34       		.byte	0x34
 584 0157 73000000 		.4byte	0x73
 585 015b 00000000 		.4byte	.LLST4
 586 015f 0E       		.uleb128 0xe
 587 0160 22000000 		.4byte	.LVL21
 588 0164 95020000 		.4byte	0x295
 589 0168 0F       		.uleb128 0xf
 590 0169 01       		.uleb128 0x1
 591 016a 50       		.byte	0x50
 592 016b 02       		.uleb128 0x2
 593 016c 74       		.byte	0x74
 594 016d 00       		.sleb128 0
 595 016e 00       		.byte	0
 596 016f 00       		.byte	0
 597 0170 10       		.uleb128 0x10
 598 0171 4A000000 		.4byte	.LVL24
 599 0175 A0020000 		.4byte	0x2a0
 600 0179 00       		.byte	0
 601 017a 0B       		.uleb128 0xb
 602 017b 4B010000 		.4byte	.LASF27
 603 017f 01       		.byte	0x1
 604 0180 2A       		.byte	0x2a
 605 0181 00000000 		.4byte	.LFB4
 606 0185 2C000000 		.4byte	.LFE4-.LFB4
 607 0189 01       		.uleb128 0x1
 608 018a 9C       		.byte	0x9c
 609 018b C4010000 		.4byte	0x1c4
 610 018f 11       		.uleb128 0x11
 611 0190 0A000000 		.4byte	.LBB3
 612 0194 0E000000 		.4byte	.LBE3-.LBB3
 613 0198 BA010000 		.4byte	0x1ba
 614 019c 0D       		.uleb128 0xd
 615 019d 6900     		.ascii	"i\000"
 616 019f 01       		.byte	0x1
 617 01a0 2C       		.byte	0x2c
 618 01a1 73000000 		.4byte	0x73
 619 01a5 1F000000 		.4byte	.LLST3
 620 01a9 0E       		.uleb128 0xe
 621 01aa 14000000 		.4byte	.LVL16
 622 01ae A9020000 		.4byte	0x2a9
ARM GAS  C:\Users\41786\AppData\Local\Temp\ccQWef1a.s 			page 12


 623 01b2 0F       		.uleb128 0xf
 624 01b3 01       		.uleb128 0x1
 625 01b4 50       		.byte	0x50
 626 01b5 02       		.uleb128 0x2
 627 01b6 74       		.byte	0x74
 628 01b7 7F       		.sleb128 -1
 629 01b8 00       		.byte	0
 630 01b9 00       		.byte	0
 631 01ba 10       		.uleb128 0x10
 632 01bb 28000000 		.4byte	.LVL18
 633 01bf A0020000 		.4byte	0x2a0
 634 01c3 00       		.byte	0
 635 01c4 0B       		.uleb128 0xb
 636 01c5 3E000000 		.4byte	.LASF28
 637 01c9 01       		.byte	0x1
 638 01ca 22       		.byte	0x22
 639 01cb 00000000 		.4byte	.LFB3
 640 01cf 2C000000 		.4byte	.LFE3-.LFB3
 641 01d3 01       		.uleb128 0x1
 642 01d4 9C       		.byte	0x9c
 643 01d5 0E020000 		.4byte	0x20e
 644 01d9 11       		.uleb128 0x11
 645 01da 0A000000 		.4byte	.LBB2
 646 01de 0E000000 		.4byte	.LBE2-.LBB2
 647 01e2 04020000 		.4byte	0x204
 648 01e6 0D       		.uleb128 0xd
 649 01e7 6900     		.ascii	"i\000"
 650 01e9 01       		.byte	0x1
 651 01ea 24       		.byte	0x24
 652 01eb 73000000 		.4byte	0x73
 653 01ef 61000000 		.4byte	.LLST2
 654 01f3 0E       		.uleb128 0xe
 655 01f4 14000000 		.4byte	.LVL10
 656 01f8 B4020000 		.4byte	0x2b4
 657 01fc 0F       		.uleb128 0xf
 658 01fd 01       		.uleb128 0x1
 659 01fe 50       		.byte	0x50
 660 01ff 02       		.uleb128 0x2
 661 0200 74       		.byte	0x74
 662 0201 7F       		.sleb128 -1
 663 0202 00       		.byte	0
 664 0203 00       		.byte	0
 665 0204 10       		.uleb128 0x10
 666 0205 28000000 		.4byte	.LVL12
 667 0209 A0020000 		.4byte	0x2a0
 668 020d 00       		.byte	0
 669 020e 12       		.uleb128 0x12
 670 020f 4E030000 		.4byte	.LASF29
 671 0213 01       		.byte	0x1
 672 0214 1C       		.byte	0x1c
 673 0215 8C000000 		.4byte	0x8c
 674 0219 00000000 		.4byte	.LFB2
 675 021d 2C000000 		.4byte	.LFE2-.LFB2
 676 0221 01       		.uleb128 0x1
 677 0222 9C       		.byte	0x9c
 678 0223 40020000 		.4byte	0x240
 679 0227 13       		.uleb128 0x13
ARM GAS  C:\Users\41786\AppData\Local\Temp\ccQWef1a.s 			page 13


 680 0228 32030000 		.4byte	.LASF31
 681 022c 01       		.byte	0x1
 682 022d 1C       		.byte	0x1c
 683 022e 81000000 		.4byte	0x81
 684 0232 A3000000 		.4byte	.LLST1
 685 0236 10       		.uleb128 0x10
 686 0237 22000000 		.4byte	.LVL6
 687 023b A0020000 		.4byte	0x2a0
 688 023f 00       		.byte	0
 689 0240 12       		.uleb128 0x12
 690 0241 5D000000 		.4byte	.LASF30
 691 0245 01       		.byte	0x1
 692 0246 17       		.byte	0x17
 693 0247 1C010000 		.4byte	0x11c
 694 024b 00000000 		.4byte	.LFB1
 695 024f 28000000 		.4byte	.LFE1-.LFB1
 696 0253 01       		.uleb128 0x1
 697 0254 9C       		.byte	0x9c
 698 0255 72020000 		.4byte	0x272
 699 0259 13       		.uleb128 0x13
 700 025a 32030000 		.4byte	.LASF31
 701 025e 01       		.byte	0x1
 702 025f 17       		.byte	0x17
 703 0260 81000000 		.4byte	0x81
 704 0264 C4000000 		.4byte	.LLST0
 705 0268 10       		.uleb128 0x10
 706 0269 20000000 		.4byte	.LVL3
 707 026d A0020000 		.4byte	0x2a0
 708 0271 00       		.byte	0
 709 0272 12       		.uleb128 0x12
 710 0273 50000000 		.4byte	.LASF32
 711 0277 01       		.byte	0x1
 712 0278 0D       		.byte	0xd
 713 0279 1C010000 		.4byte	0x11c
 714 027d 00000000 		.4byte	.LFB0
 715 0281 2C000000 		.4byte	.LFE0-.LFB0
 716 0285 01       		.uleb128 0x1
 717 0286 9C       		.byte	0x9c
 718 0287 95020000 		.4byte	0x295
 719 028b 10       		.uleb128 0x10
 720 028c 24000000 		.4byte	.LVL0
 721 0290 A0020000 		.4byte	0x2a0
 722 0294 00       		.byte	0
 723 0295 14       		.uleb128 0x14
 724 0296 EB000000 		.4byte	.LASF33
 725 029a EB000000 		.4byte	.LASF33
 726 029e 04       		.byte	0x4
 727 029f 37       		.byte	0x37
 728 02a0 15       		.uleb128 0x15
 729 02a1 D8020000 		.4byte	.LASF39
 730 02a5 D8020000 		.4byte	.LASF39
 731 02a9 14       		.uleb128 0x14
 732 02aa 13030000 		.4byte	.LASF34
 733 02ae 13030000 		.4byte	.LASF34
 734 02b2 04       		.byte	0x4
 735 02b3 2E       		.byte	0x2e
 736 02b4 14       		.uleb128 0x14
ARM GAS  C:\Users\41786\AppData\Local\Temp\ccQWef1a.s 			page 14


 737 02b5 12010000 		.4byte	.LASF35
 738 02b9 12010000 		.4byte	.LASF35
 739 02bd 04       		.byte	0x4
 740 02be 40       		.byte	0x40
 741 02bf 00       		.byte	0
 742              		.section	.debug_abbrev,"",%progbits
 743              	.Ldebug_abbrev0:
 744 0000 01       		.uleb128 0x1
 745 0001 11       		.uleb128 0x11
 746 0002 01       		.byte	0x1
 747 0003 25       		.uleb128 0x25
 748 0004 0E       		.uleb128 0xe
 749 0005 13       		.uleb128 0x13
 750 0006 0B       		.uleb128 0xb
 751 0007 03       		.uleb128 0x3
 752 0008 0E       		.uleb128 0xe
 753 0009 1B       		.uleb128 0x1b
 754 000a 0E       		.uleb128 0xe
 755 000b 55       		.uleb128 0x55
 756 000c 17       		.uleb128 0x17
 757 000d 11       		.uleb128 0x11
 758 000e 01       		.uleb128 0x1
 759 000f 10       		.uleb128 0x10
 760 0010 17       		.uleb128 0x17
 761 0011 00       		.byte	0
 762 0012 00       		.byte	0
 763 0013 02       		.uleb128 0x2
 764 0014 24       		.uleb128 0x24
 765 0015 00       		.byte	0
 766 0016 0B       		.uleb128 0xb
 767 0017 0B       		.uleb128 0xb
 768 0018 3E       		.uleb128 0x3e
 769 0019 0B       		.uleb128 0xb
 770 001a 03       		.uleb128 0x3
 771 001b 0E       		.uleb128 0xe
 772 001c 00       		.byte	0
 773 001d 00       		.byte	0
 774 001e 03       		.uleb128 0x3
 775 001f 16       		.uleb128 0x16
 776 0020 00       		.byte	0
 777 0021 03       		.uleb128 0x3
 778 0022 0E       		.uleb128 0xe
 779 0023 3A       		.uleb128 0x3a
 780 0024 0B       		.uleb128 0xb
 781 0025 3B       		.uleb128 0x3b
 782 0026 0B       		.uleb128 0xb
 783 0027 49       		.uleb128 0x49
 784 0028 13       		.uleb128 0x13
 785 0029 00       		.byte	0
 786 002a 00       		.byte	0
 787 002b 04       		.uleb128 0x4
 788 002c 24       		.uleb128 0x24
 789 002d 00       		.byte	0
 790 002e 0B       		.uleb128 0xb
 791 002f 0B       		.uleb128 0xb
 792 0030 3E       		.uleb128 0x3e
 793 0031 0B       		.uleb128 0xb
ARM GAS  C:\Users\41786\AppData\Local\Temp\ccQWef1a.s 			page 15


 794 0032 03       		.uleb128 0x3
 795 0033 08       		.uleb128 0x8
 796 0034 00       		.byte	0
 797 0035 00       		.byte	0
 798 0036 05       		.uleb128 0x5
 799 0037 04       		.uleb128 0x4
 800 0038 01       		.byte	0x1
 801 0039 3E       		.uleb128 0x3e
 802 003a 0B       		.uleb128 0xb
 803 003b 0B       		.uleb128 0xb
 804 003c 0B       		.uleb128 0xb
 805 003d 49       		.uleb128 0x49
 806 003e 13       		.uleb128 0x13
 807 003f 3A       		.uleb128 0x3a
 808 0040 0B       		.uleb128 0xb
 809 0041 3B       		.uleb128 0x3b
 810 0042 0B       		.uleb128 0xb
 811 0043 01       		.uleb128 0x1
 812 0044 13       		.uleb128 0x13
 813 0045 00       		.byte	0
 814 0046 00       		.byte	0
 815 0047 06       		.uleb128 0x6
 816 0048 28       		.uleb128 0x28
 817 0049 00       		.byte	0
 818 004a 03       		.uleb128 0x3
 819 004b 0E       		.uleb128 0xe
 820 004c 1C       		.uleb128 0x1c
 821 004d 0B       		.uleb128 0xb
 822 004e 00       		.byte	0
 823 004f 00       		.byte	0
 824 0050 07       		.uleb128 0x7
 825 0051 01       		.uleb128 0x1
 826 0052 01       		.byte	0x1
 827 0053 49       		.uleb128 0x49
 828 0054 13       		.uleb128 0x13
 829 0055 01       		.uleb128 0x1
 830 0056 13       		.uleb128 0x13
 831 0057 00       		.byte	0
 832 0058 00       		.byte	0
 833 0059 08       		.uleb128 0x8
 834 005a 21       		.uleb128 0x21
 835 005b 00       		.byte	0
 836 005c 49       		.uleb128 0x49
 837 005d 13       		.uleb128 0x13
 838 005e 2F       		.uleb128 0x2f
 839 005f 0B       		.uleb128 0xb
 840 0060 00       		.byte	0
 841 0061 00       		.byte	0
 842 0062 09       		.uleb128 0x9
 843 0063 34       		.uleb128 0x34
 844 0064 00       		.byte	0
 845 0065 03       		.uleb128 0x3
 846 0066 0E       		.uleb128 0xe
 847 0067 3A       		.uleb128 0x3a
 848 0068 0B       		.uleb128 0xb
 849 0069 3B       		.uleb128 0x3b
 850 006a 0B       		.uleb128 0xb
ARM GAS  C:\Users\41786\AppData\Local\Temp\ccQWef1a.s 			page 16


 851 006b 49       		.uleb128 0x49
 852 006c 13       		.uleb128 0x13
 853 006d 00       		.byte	0
 854 006e 00       		.byte	0
 855 006f 0A       		.uleb128 0xa
 856 0070 34       		.uleb128 0x34
 857 0071 00       		.byte	0
 858 0072 03       		.uleb128 0x3
 859 0073 0E       		.uleb128 0xe
 860 0074 3A       		.uleb128 0x3a
 861 0075 0B       		.uleb128 0xb
 862 0076 3B       		.uleb128 0x3b
 863 0077 0B       		.uleb128 0xb
 864 0078 49       		.uleb128 0x49
 865 0079 13       		.uleb128 0x13
 866 007a 02       		.uleb128 0x2
 867 007b 18       		.uleb128 0x18
 868 007c 00       		.byte	0
 869 007d 00       		.byte	0
 870 007e 0B       		.uleb128 0xb
 871 007f 2E       		.uleb128 0x2e
 872 0080 01       		.byte	0x1
 873 0081 3F       		.uleb128 0x3f
 874 0082 19       		.uleb128 0x19
 875 0083 03       		.uleb128 0x3
 876 0084 0E       		.uleb128 0xe
 877 0085 3A       		.uleb128 0x3a
 878 0086 0B       		.uleb128 0xb
 879 0087 3B       		.uleb128 0x3b
 880 0088 0B       		.uleb128 0xb
 881 0089 27       		.uleb128 0x27
 882 008a 19       		.uleb128 0x19
 883 008b 11       		.uleb128 0x11
 884 008c 01       		.uleb128 0x1
 885 008d 12       		.uleb128 0x12
 886 008e 06       		.uleb128 0x6
 887 008f 40       		.uleb128 0x40
 888 0090 18       		.uleb128 0x18
 889 0091 9742     		.uleb128 0x2117
 890 0093 19       		.uleb128 0x19
 891 0094 01       		.uleb128 0x1
 892 0095 13       		.uleb128 0x13
 893 0096 00       		.byte	0
 894 0097 00       		.byte	0
 895 0098 0C       		.uleb128 0xc
 896 0099 0B       		.uleb128 0xb
 897 009a 01       		.byte	0x1
 898 009b 55       		.uleb128 0x55
 899 009c 17       		.uleb128 0x17
 900 009d 01       		.uleb128 0x1
 901 009e 13       		.uleb128 0x13
 902 009f 00       		.byte	0
 903 00a0 00       		.byte	0
 904 00a1 0D       		.uleb128 0xd
 905 00a2 34       		.uleb128 0x34
 906 00a3 00       		.byte	0
 907 00a4 03       		.uleb128 0x3
ARM GAS  C:\Users\41786\AppData\Local\Temp\ccQWef1a.s 			page 17


 908 00a5 08       		.uleb128 0x8
 909 00a6 3A       		.uleb128 0x3a
 910 00a7 0B       		.uleb128 0xb
 911 00a8 3B       		.uleb128 0x3b
 912 00a9 0B       		.uleb128 0xb
 913 00aa 49       		.uleb128 0x49
 914 00ab 13       		.uleb128 0x13
 915 00ac 02       		.uleb128 0x2
 916 00ad 17       		.uleb128 0x17
 917 00ae 00       		.byte	0
 918 00af 00       		.byte	0
 919 00b0 0E       		.uleb128 0xe
 920 00b1 898201   		.uleb128 0x4109
 921 00b4 01       		.byte	0x1
 922 00b5 11       		.uleb128 0x11
 923 00b6 01       		.uleb128 0x1
 924 00b7 31       		.uleb128 0x31
 925 00b8 13       		.uleb128 0x13
 926 00b9 00       		.byte	0
 927 00ba 00       		.byte	0
 928 00bb 0F       		.uleb128 0xf
 929 00bc 8A8201   		.uleb128 0x410a
 930 00bf 00       		.byte	0
 931 00c0 02       		.uleb128 0x2
 932 00c1 18       		.uleb128 0x18
 933 00c2 9142     		.uleb128 0x2111
 934 00c4 18       		.uleb128 0x18
 935 00c5 00       		.byte	0
 936 00c6 00       		.byte	0
 937 00c7 10       		.uleb128 0x10
 938 00c8 898201   		.uleb128 0x4109
 939 00cb 00       		.byte	0
 940 00cc 11       		.uleb128 0x11
 941 00cd 01       		.uleb128 0x1
 942 00ce 31       		.uleb128 0x31
 943 00cf 13       		.uleb128 0x13
 944 00d0 00       		.byte	0
 945 00d1 00       		.byte	0
 946 00d2 11       		.uleb128 0x11
 947 00d3 0B       		.uleb128 0xb
 948 00d4 01       		.byte	0x1
 949 00d5 11       		.uleb128 0x11
 950 00d6 01       		.uleb128 0x1
 951 00d7 12       		.uleb128 0x12
 952 00d8 06       		.uleb128 0x6
 953 00d9 01       		.uleb128 0x1
 954 00da 13       		.uleb128 0x13
 955 00db 00       		.byte	0
 956 00dc 00       		.byte	0
 957 00dd 12       		.uleb128 0x12
 958 00de 2E       		.uleb128 0x2e
 959 00df 01       		.byte	0x1
 960 00e0 3F       		.uleb128 0x3f
 961 00e1 19       		.uleb128 0x19
 962 00e2 03       		.uleb128 0x3
 963 00e3 0E       		.uleb128 0xe
 964 00e4 3A       		.uleb128 0x3a
ARM GAS  C:\Users\41786\AppData\Local\Temp\ccQWef1a.s 			page 18


 965 00e5 0B       		.uleb128 0xb
 966 00e6 3B       		.uleb128 0x3b
 967 00e7 0B       		.uleb128 0xb
 968 00e8 27       		.uleb128 0x27
 969 00e9 19       		.uleb128 0x19
 970 00ea 49       		.uleb128 0x49
 971 00eb 13       		.uleb128 0x13
 972 00ec 11       		.uleb128 0x11
 973 00ed 01       		.uleb128 0x1
 974 00ee 12       		.uleb128 0x12
 975 00ef 06       		.uleb128 0x6
 976 00f0 40       		.uleb128 0x40
 977 00f1 18       		.uleb128 0x18
 978 00f2 9742     		.uleb128 0x2117
 979 00f4 19       		.uleb128 0x19
 980 00f5 01       		.uleb128 0x1
 981 00f6 13       		.uleb128 0x13
 982 00f7 00       		.byte	0
 983 00f8 00       		.byte	0
 984 00f9 13       		.uleb128 0x13
 985 00fa 05       		.uleb128 0x5
 986 00fb 00       		.byte	0
 987 00fc 03       		.uleb128 0x3
 988 00fd 0E       		.uleb128 0xe
 989 00fe 3A       		.uleb128 0x3a
 990 00ff 0B       		.uleb128 0xb
 991 0100 3B       		.uleb128 0x3b
 992 0101 0B       		.uleb128 0xb
 993 0102 49       		.uleb128 0x49
 994 0103 13       		.uleb128 0x13
 995 0104 02       		.uleb128 0x2
 996 0105 17       		.uleb128 0x17
 997 0106 00       		.byte	0
 998 0107 00       		.byte	0
 999 0108 14       		.uleb128 0x14
 1000 0109 2E       		.uleb128 0x2e
 1001 010a 00       		.byte	0
 1002 010b 3F       		.uleb128 0x3f
 1003 010c 19       		.uleb128 0x19
 1004 010d 3C       		.uleb128 0x3c
 1005 010e 19       		.uleb128 0x19
 1006 010f 6E       		.uleb128 0x6e
 1007 0110 0E       		.uleb128 0xe
 1008 0111 03       		.uleb128 0x3
 1009 0112 0E       		.uleb128 0xe
 1010 0113 3A       		.uleb128 0x3a
 1011 0114 0B       		.uleb128 0xb
 1012 0115 3B       		.uleb128 0x3b
 1013 0116 0B       		.uleb128 0xb
 1014 0117 00       		.byte	0
 1015 0118 00       		.byte	0
 1016 0119 15       		.uleb128 0x15
 1017 011a 2E       		.uleb128 0x2e
 1018 011b 00       		.byte	0
 1019 011c 3F       		.uleb128 0x3f
 1020 011d 19       		.uleb128 0x19
 1021 011e 3C       		.uleb128 0x3c
ARM GAS  C:\Users\41786\AppData\Local\Temp\ccQWef1a.s 			page 19


 1022 011f 19       		.uleb128 0x19
 1023 0120 6E       		.uleb128 0x6e
 1024 0121 0E       		.uleb128 0xe
 1025 0122 03       		.uleb128 0x3
 1026 0123 0E       		.uleb128 0xe
 1027 0124 00       		.byte	0
 1028 0125 00       		.byte	0
 1029 0126 00       		.byte	0
 1030              		.section	.debug_loc,"",%progbits
 1031              	.Ldebug_loc0:
 1032              	.LLST4:
 1033 0000 18000000 		.4byte	.LVL19
 1034 0004 1C000000 		.4byte	.LVL20
 1035 0008 0200     		.2byte	0x2
 1036 000a 30       		.byte	0x30
 1037 000b 9F       		.byte	0x9f
 1038 000c 1C000000 		.4byte	.LVL20
 1039 0010 58000000 		.4byte	.LFE5
 1040 0014 0100     		.2byte	0x1
 1041 0016 54       		.byte	0x54
 1042 0017 00000000 		.4byte	0
 1043 001b 00000000 		.4byte	0
 1044              	.LLST3:
 1045 001f 0A000000 		.4byte	.LVL13
 1046 0023 0C000000 		.4byte	.LVL14
 1047 0027 0200     		.2byte	0x2
 1048 0029 30       		.byte	0x30
 1049 002a 9F       		.byte	0x9f
 1050 002b 0C000000 		.4byte	.LVL14
 1051 002f 10000000 		.4byte	.LVL15
 1052 0033 0100     		.2byte	0x1
 1053 0035 54       		.byte	0x54
 1054 0036 10000000 		.4byte	.LVL15
 1055 003a 13000000 		.4byte	.LVL16-1
 1056 003e 0100     		.2byte	0x1
 1057 0040 50       		.byte	0x50
 1058 0041 13000000 		.4byte	.LVL16-1
 1059 0045 14000000 		.4byte	.LVL16
 1060 0049 0300     		.2byte	0x3
 1061 004b 74       		.byte	0x74
 1062 004c 7F       		.sleb128 -1
 1063 004d 9F       		.byte	0x9f
 1064 004e 14000000 		.4byte	.LVL16
 1065 0052 2C000000 		.4byte	.LFE4
 1066 0056 0100     		.2byte	0x1
 1067 0058 54       		.byte	0x54
 1068 0059 00000000 		.4byte	0
 1069 005d 00000000 		.4byte	0
 1070              	.LLST2:
 1071 0061 0A000000 		.4byte	.LVL7
 1072 0065 0C000000 		.4byte	.LVL8
 1073 0069 0200     		.2byte	0x2
 1074 006b 30       		.byte	0x30
 1075 006c 9F       		.byte	0x9f
 1076 006d 0C000000 		.4byte	.LVL8
 1077 0071 10000000 		.4byte	.LVL9
 1078 0075 0100     		.2byte	0x1
ARM GAS  C:\Users\41786\AppData\Local\Temp\ccQWef1a.s 			page 20


 1079 0077 54       		.byte	0x54
 1080 0078 10000000 		.4byte	.LVL9
 1081 007c 13000000 		.4byte	.LVL10-1
 1082 0080 0100     		.2byte	0x1
 1083 0082 50       		.byte	0x50
 1084 0083 13000000 		.4byte	.LVL10-1
 1085 0087 14000000 		.4byte	.LVL10
 1086 008b 0300     		.2byte	0x3
 1087 008d 74       		.byte	0x74
 1088 008e 7F       		.sleb128 -1
 1089 008f 9F       		.byte	0x9f
 1090 0090 14000000 		.4byte	.LVL10
 1091 0094 2C000000 		.4byte	.LFE3
 1092 0098 0100     		.2byte	0x1
 1093 009a 54       		.byte	0x54
 1094 009b 00000000 		.4byte	0
 1095 009f 00000000 		.4byte	0
 1096              	.LLST1:
 1097 00a3 00000000 		.4byte	.LVL4
 1098 00a7 0C000000 		.4byte	.LVL5
 1099 00ab 0100     		.2byte	0x1
 1100 00ad 50       		.byte	0x50
 1101 00ae 0C000000 		.4byte	.LVL5
 1102 00b2 2C000000 		.4byte	.LFE2
 1103 00b6 0400     		.2byte	0x4
 1104 00b8 F3       		.byte	0xf3
 1105 00b9 01       		.uleb128 0x1
 1106 00ba 50       		.byte	0x50
 1107 00bb 9F       		.byte	0x9f
 1108 00bc 00000000 		.4byte	0
 1109 00c0 00000000 		.4byte	0
 1110              	.LLST0:
 1111 00c4 00000000 		.4byte	.LVL1
 1112 00c8 0A000000 		.4byte	.LVL2
 1113 00cc 0100     		.2byte	0x1
 1114 00ce 50       		.byte	0x50
 1115 00cf 0A000000 		.4byte	.LVL2
 1116 00d3 28000000 		.4byte	.LFE1
 1117 00d7 0400     		.2byte	0x4
 1118 00d9 F3       		.byte	0xf3
 1119 00da 01       		.uleb128 0x1
 1120 00db 50       		.byte	0x50
 1121 00dc 9F       		.byte	0x9f
 1122 00dd 00000000 		.4byte	0
 1123 00e1 00000000 		.4byte	0
 1124              		.section	.debug_aranges,"",%progbits
 1125 0000 44000000 		.4byte	0x44
 1126 0004 0200     		.2byte	0x2
 1127 0006 00000000 		.4byte	.Ldebug_info0
 1128 000a 04       		.byte	0x4
 1129 000b 00       		.byte	0
 1130 000c 0000     		.2byte	0
 1131 000e 0000     		.2byte	0
 1132 0010 00000000 		.4byte	.LFB0
 1133 0014 2C000000 		.4byte	.LFE0-.LFB0
 1134 0018 00000000 		.4byte	.LFB1
 1135 001c 28000000 		.4byte	.LFE1-.LFB1
ARM GAS  C:\Users\41786\AppData\Local\Temp\ccQWef1a.s 			page 21


 1136 0020 00000000 		.4byte	.LFB2
 1137 0024 2C000000 		.4byte	.LFE2-.LFB2
 1138 0028 00000000 		.4byte	.LFB3
 1139 002c 2C000000 		.4byte	.LFE3-.LFB3
 1140 0030 00000000 		.4byte	.LFB4
 1141 0034 2C000000 		.4byte	.LFE4-.LFB4
 1142 0038 00000000 		.4byte	.LFB5
 1143 003c 58000000 		.4byte	.LFE5-.LFB5
 1144 0040 00000000 		.4byte	0
 1145 0044 00000000 		.4byte	0
 1146              		.section	.debug_ranges,"",%progbits
 1147              	.Ldebug_ranges0:
 1148 0000 14000000 		.4byte	.LBB4
 1149 0004 16000000 		.4byte	.LBE4
 1150 0008 18000000 		.4byte	.LBB5
 1151 000c 36000000 		.4byte	.LBE5
 1152 0010 00000000 		.4byte	0
 1153 0014 00000000 		.4byte	0
 1154 0018 00000000 		.4byte	.LFB0
 1155 001c 2C000000 		.4byte	.LFE0
 1156 0020 00000000 		.4byte	.LFB1
 1157 0024 28000000 		.4byte	.LFE1
 1158 0028 00000000 		.4byte	.LFB2
 1159 002c 2C000000 		.4byte	.LFE2
 1160 0030 00000000 		.4byte	.LFB3
 1161 0034 2C000000 		.4byte	.LFE3
 1162 0038 00000000 		.4byte	.LFB4
 1163 003c 2C000000 		.4byte	.LFE4
 1164 0040 00000000 		.4byte	.LFB5
 1165 0044 58000000 		.4byte	.LFE5
 1166 0048 00000000 		.4byte	0
 1167 004c 00000000 		.4byte	0
 1168              		.section	.debug_line,"",%progbits
 1169              	.Ldebug_line0:
 1170 0000 53020000 		.section	.debug_str,"MS",%progbits,1
 1170      0200A401 
 1170      00000201 
 1170      FB0E0D00 
 1170      01010101 
 1171              	.LASF5:
 1172 0000 5F5F696E 		.ascii	"__int32_t\000"
 1172      7433325F 
 1172      7400
 1173              	.LASF24:
 1174 000a 76616C5F 		.ascii	"val_calibrees\000"
 1174      63616C69 
 1174      62726565 
 1174      7300
 1175              	.LASF15:
 1176 0018 43415054 		.ascii	"CAPTEUR_DROITE\000"
 1176      4555525F 
 1176      44524F49 
 1176      544500
 1177              	.LASF37:
 1178 0027 72656365 		.ascii	"reception_capteur_IR.c\000"
 1178      7074696F 
 1178      6E5F6361 
ARM GAS  C:\Users\41786\AppData\Local\Temp\ccQWef1a.s 			page 22


 1178      70746575 
 1178      725F4952 
 1179              	.LASF28:
 1180 003e 76616C65 		.ascii	"valeurs_ambiantes\000"
 1180      7572735F 
 1180      616D6269 
 1180      616E7465 
 1180      7300
 1181              	.LASF32:
 1182 0050 63686563 		.ascii	"check_chemin\000"
 1182      6B5F6368 
 1182      656D696E 
 1182      00
 1183              	.LASF30:
 1184 005d 6765745F 		.ascii	"get_obstacle_condition\000"
 1184      6F627374 
 1184      61636C65 
 1184      5F636F6E 
 1184      64697469 
 1185              	.LASF21:
 1186 0074 76616C5F 		.ascii	"val_ambiantes\000"
 1186      616D6269 
 1186      616E7465 
 1186      7300
 1187              	.LASF1:
 1188 0082 756E7369 		.ascii	"unsigned char\000"
 1188      676E6564 
 1188      20636861 
 1188      7200
 1189              	.LASF38:
 1190 0090 433A5C55 		.ascii	"C:\\Users\\41786\\Desktop\\epfl\\microinfo\\projet\\"
 1190      73657273 
 1190      5C343137 
 1190      38365C44 
 1190      65736B74 
 1191 00bd 6275636B 		.ascii	"buck\000"
 1191      00
 1192              	.LASF14:
 1193 00c2 43415054 		.ascii	"CAPTEUR_HAUT_DROITE_45\000"
 1193      4555525F 
 1193      48415554 
 1193      5F44524F 
 1193      4954455F 
 1194              	.LASF7:
 1195 00d9 6C6F6E67 		.ascii	"long unsigned int\000"
 1195      20756E73 
 1195      69676E65 
 1195      6420696E 
 1195      7400
 1196              	.LASF33:
 1197 00eb 6765745F 		.ascii	"get_calibrated_prox\000"
 1197      63616C69 
 1197      62726174 
 1197      65645F70 
 1197      726F7800 
 1198              	.LASF3:
 1199 00ff 73686F72 		.ascii	"short unsigned int\000"
ARM GAS  C:\Users\41786\AppData\Local\Temp\ccQWef1a.s 			page 23


 1199      7420756E 
 1199      7369676E 
 1199      65642069 
 1199      6E7400
 1200              	.LASF35:
 1201 0112 6765745F 		.ascii	"get_ambient_light\000"
 1201      616D6269 
 1201      656E745F 
 1201      6C696768 
 1201      7400
 1202              	.LASF17:
 1203 0124 43415054 		.ascii	"CAPTEUR_BAS_GAUCHE\000"
 1203      4555525F 
 1203      4241535F 
 1203      47415543 
 1203      484500
 1204              	.LASF19:
 1205 0137 43415054 		.ascii	"CAPTEUR_HAUT_GAUCHE\000"
 1205      4555525F 
 1205      48415554 
 1205      5F474155 
 1205      43484500 
 1206              	.LASF27:
 1207 014b 76616C65 		.ascii	"valeurs_absolues\000"
 1207      7572735F 
 1207      6162736F 
 1207      6C756573 
 1207      00
 1208              	.LASF20:
 1209 015c 43415054 		.ascii	"CAPTEUR_HAUT_GAUCHE_45\000"
 1209      4555525F 
 1209      48415554 
 1209      5F474155 
 1209      4348455F 
 1210              	.LASF6:
 1211 0173 5F5F7569 		.ascii	"__uint32_t\000"
 1211      6E743332 
 1211      5F7400
 1212              	.LASF25:
 1213 017e 6F627374 		.ascii	"obstacle\000"
 1213      61636C65 
 1213      00
 1214              	.LASF36:
 1215 0187 474E5520 		.ascii	"GNU C11 7.2.1 20170904 (release) [ARM/embedded-7-br"
 1215      43313120 
 1215      372E322E 
 1215      31203230 
 1215      31373039 
 1216 01ba 616E6368 		.ascii	"anch revision 255204] -mcpu=cortex-m4 -mfloat-abi=h"
 1216      20726576 
 1216      6973696F 
 1216      6E203235 
 1216      35323034 
 1217 01ed 61726420 		.ascii	"ard -mfpu=fpv4-sp-d16 -mno-thumb-interwork -mthumb "
 1217      2D6D6670 
 1217      753D6670 
 1217      76342D73 
ARM GAS  C:\Users\41786\AppData\Local\Temp\ccQWef1a.s 			page 24


 1217      702D6431 
 1218 0220 2D676764 		.ascii	"-ggdb -O2 -fomit-frame-pointer -falign-functions=16"
 1218      62202D4F 
 1218      32202D66 
 1218      6F6D6974 
 1218      2D667261 
 1219 0253 202D666E 		.ascii	" -fno-strict-aliasing -fstack-protector-all -ffunct"
 1219      6F2D7374 
 1219      72696374 
 1219      2D616C69 
 1219      6173696E 
 1220 0286 696F6E2D 		.ascii	"ion-sections -fdata-sections -fno-common -fsingle-p"
 1220      73656374 
 1220      696F6E73 
 1220      202D6664 
 1220      6174612D 
 1221 02b9 72656369 		.ascii	"recision-constant\000"
 1221      73696F6E 
 1221      2D636F6E 
 1221      7374616E 
 1221      7400
 1222              	.LASF10:
 1223 02cb 756E7369 		.ascii	"unsigned int\000"
 1223      676E6564 
 1223      20696E74 
 1223      00
 1224              	.LASF39:
 1225 02d8 5F5F7374 		.ascii	"__stack_chk_fail\000"
 1225      61636B5F 
 1225      63686B5F 
 1225      6661696C 
 1225      00
 1226              	.LASF9:
 1227 02e9 6C6F6E67 		.ascii	"long long unsigned int\000"
 1227      206C6F6E 
 1227      6720756E 
 1227      7369676E 
 1227      65642069 
 1228              	.LASF16:
 1229 0300 43415054 		.ascii	"CAPTEUR_BAS_DROITE\000"
 1229      4555525F 
 1229      4241535F 
 1229      44524F49 
 1229      544500
 1230              	.LASF34:
 1231 0313 6765745F 		.ascii	"get_prox\000"
 1231      70726F78 
 1231      00
 1232              	.LASF11:
 1233 031c 696E7433 		.ascii	"int32_t\000"
 1233      325F7400 
 1234              	.LASF8:
 1235 0324 6C6F6E67 		.ascii	"long long int\000"
 1235      206C6F6E 
 1235      6720696E 
 1235      7400
 1236              	.LASF31:
ARM GAS  C:\Users\41786\AppData\Local\Temp\ccQWef1a.s 			page 25


 1237 0332 6E756D65 		.ascii	"numero_capteur\000"
 1237      726F5F63 
 1237      61707465 
 1237      757200
 1238              	.LASF22:
 1239 0341 76616C5F 		.ascii	"val_absolues\000"
 1239      6162736F 
 1239      6C756573 
 1239      00
 1240              	.LASF29:
 1241 034e 6765745F 		.ascii	"get_valeur_capteur\000"
 1241      76616C65 
 1241      75725F63 
 1241      61707465 
 1241      757200
 1242              	.LASF13:
 1243 0361 43415054 		.ascii	"CAPTEUR_HAUT_DROITE\000"
 1243      4555525F 
 1243      48415554 
 1243      5F44524F 
 1243      49544500 
 1244              	.LASF2:
 1245 0375 73686F72 		.ascii	"short int\000"
 1245      7420696E 
 1245      7400
 1246              	.LASF18:
 1247 037f 43415054 		.ascii	"CAPTEUR_GAUCHE\000"
 1247      4555525F 
 1247      47415543 
 1247      484500
 1248              	.LASF12:
 1249 038e 75696E74 		.ascii	"uint32_t\000"
 1249      33325F74 
 1249      00
 1250              	.LASF4:
 1251 0397 6C6F6E67 		.ascii	"long int\000"
 1251      20696E74 
 1251      00
 1252              	.LASF0:
 1253 03a0 7369676E 		.ascii	"signed char\000"
 1253      65642063 
 1253      68617200 
 1254              	.LASF23:
 1255 03ac 5F426F6F 		.ascii	"_Bool\000"
 1255      6C00
 1256              	.LASF26:
 1257 03b2 76616C65 		.ascii	"valeurs_calibrees\000"
 1257      7572735F 
 1257      63616C69 
 1257      62726565 
 1257      7300
 1258              		.ident	"GCC: (GNU Tools for Arm Embedded Processors 7-2017-q4-major) 7.2.1 20170904 (release) [ARM
ARM GAS  C:\Users\41786\AppData\Local\Temp\ccQWef1a.s 			page 26


DEFINED SYMBOLS
                            *ABS*:00000000 reception_capteur_IR.c
C:\Users\41786\AppData\Local\Temp\ccQWef1a.s:18     .text.check_chemin:00000000 $t
C:\Users\41786\AppData\Local\Temp\ccQWef1a.s:26     .text.check_chemin:00000000 check_chemin
C:\Users\41786\AppData\Local\Temp\ccQWef1a.s:66     .text.check_chemin:00000024 $d
C:\Users\41786\AppData\Local\Temp\ccQWef1a.s:72     .text.get_obstacle_condition:00000000 $t
C:\Users\41786\AppData\Local\Temp\ccQWef1a.s:80     .text.get_obstacle_condition:00000000 get_obstacle_condition
C:\Users\41786\AppData\Local\Temp\ccQWef1a.s:120    .text.get_obstacle_condition:00000020 $d
C:\Users\41786\AppData\Local\Temp\ccQWef1a.s:126    .text.get_valeur_capteur:00000000 $t
C:\Users\41786\AppData\Local\Temp\ccQWef1a.s:134    .text.get_valeur_capteur:00000000 get_valeur_capteur
C:\Users\41786\AppData\Local\Temp\ccQWef1a.s:174    .text.get_valeur_capteur:00000024 $d
C:\Users\41786\AppData\Local\Temp\ccQWef1a.s:180    .text.valeurs_ambiantes:00000000 $t
C:\Users\41786\AppData\Local\Temp\ccQWef1a.s:188    .text.valeurs_ambiantes:00000000 valeurs_ambiantes
C:\Users\41786\AppData\Local\Temp\ccQWef1a.s:241    .text.valeurs_ambiantes:00000028 $d
C:\Users\41786\AppData\Local\Temp\ccQWef1a.s:246    .text.valeurs_absolues:00000000 $t
C:\Users\41786\AppData\Local\Temp\ccQWef1a.s:254    .text.valeurs_absolues:00000000 valeurs_absolues
C:\Users\41786\AppData\Local\Temp\ccQWef1a.s:307    .text.valeurs_absolues:00000028 $d
C:\Users\41786\AppData\Local\Temp\ccQWef1a.s:312    .text.valeurs_calibrees:00000000 $t
C:\Users\41786\AppData\Local\Temp\ccQWef1a.s:320    .text.valeurs_calibrees:00000000 valeurs_calibrees
C:\Users\41786\AppData\Local\Temp\ccQWef1a.s:392    .text.valeurs_calibrees:0000004c $d
C:\Users\41786\AppData\Local\Temp\ccQWef1a.s:399    .bss.obstacle:00000000 $d
C:\Users\41786\AppData\Local\Temp\ccQWef1a.s:403    .bss.obstacle:00000000 obstacle
C:\Users\41786\AppData\Local\Temp\ccQWef1a.s:406    .bss.val_calibrees:00000000 $d
C:\Users\41786\AppData\Local\Temp\ccQWef1a.s:410    .bss.val_calibrees:00000000 val_calibrees

UNDEFINED SYMBOLS
__stack_chk_fail
__stack_chk_guard
get_ambient_light
get_prox
get_calibrated_prox
