ARM GAS  C:\Users\41786\AppData\Local\Temp\ccWrufIS.s 			page 1


   1              		.cpu cortex-m4
   2              		.eabi_attribute 27, 1
   3              		.eabi_attribute 28, 1
   4              		.eabi_attribute 20, 1
   5              		.eabi_attribute 21, 1
   6              		.eabi_attribute 23, 3
   7              		.eabi_attribute 24, 1
   8              		.eabi_attribute 25, 1
   9              		.eabi_attribute 26, 1
  10              		.eabi_attribute 30, 2
  11              		.eabi_attribute 34, 1
  12              		.eabi_attribute 18, 4
  13              		.file	"reception_capteur_IR.c"
  14              		.text
  15              	.Ltext0:
  16              		.cfi_sections	.debug_frame
  17              		.section	.text.check_chemin,"ax",%progbits
  18              		.align	1
  19              		.p2align 4,,15
  20              		.global	check_chemin
  21              		.syntax unified
  22              		.thumb
  23              		.thumb_func
  24              		.fpu fpv4-sp-d16
  25              		.type	check_chemin, %function
  26              	check_chemin:
  27              	.LFB0:
  28              		.file 1 "reception_capteur_IR.c"
  29              		.loc 1 20 0
  30              		.cfi_startproc
  31              		@ args = 0, pretend = 0, frame = 8
  32              		@ frame_needed = 0, uses_anonymous_args = 0
  33 0000 00B5     		push	{lr}
  34              		.cfi_def_cfa_offset 4
  35              		.cfi_offset 14, -4
  36 0002 084B     		ldr	r3, .L6
  37              		.loc 1 21 0
  38 0004 0849     		ldr	r1, .L6+4
  39              		.loc 1 20 0
  40 0006 1A68     		ldr	r2, [r3]
  41              		.loc 1 21 0
  42 0008 C879     		ldrb	r0, [r1, #7]	@ zero_extendqisi2
  43              		.loc 1 20 0
  44 000a 83B0     		sub	sp, sp, #12
  45              		.cfi_def_cfa_offset 16
  46              		.loc 1 20 0
  47 000c 0192     		str	r2, [sp, #4]
  48              		.loc 1 26 0
  49 000e 019A     		ldr	r2, [sp, #4]
  50 0010 1B68     		ldr	r3, [r3]
  51 0012 9A42     		cmp	r2, r3
  52 0014 04D1     		bne	.L5
  53 0016 80F00100 		eor	r0, r0, #1
  54 001a 03B0     		add	sp, sp, #12
  55              		.cfi_remember_state
  56              		.cfi_def_cfa_offset 4
  57              		@ sp needed
ARM GAS  C:\Users\41786\AppData\Local\Temp\ccWrufIS.s 			page 2


  58 001c 5DF804FB 		ldr	pc, [sp], #4
  59              	.L5:
  60              		.cfi_restore_state
  61 0020 FFF7FEFF 		bl	__stack_chk_fail
  62              	.LVL0:
  63              	.L7:
  64              		.align	2
  65              	.L6:
  66 0024 00000000 		.word	__stack_chk_guard
  67 0028 00000000 		.word	.LANCHOR0
  68              		.cfi_endproc
  69              	.LFE0:
  70              		.size	check_chemin, .-check_chemin
  71              		.section	.text.get_obstacle_condition,"ax",%progbits
  72              		.align	1
  73              		.p2align 4,,15
  74              		.global	get_obstacle_condition
  75              		.syntax unified
  76              		.thumb
  77              		.thumb_func
  78              		.fpu fpv4-sp-d16
  79              		.type	get_obstacle_condition, %function
  80              	get_obstacle_condition:
  81              	.LFB1:
  82              		.loc 1 29 0
  83              		.cfi_startproc
  84              		@ args = 0, pretend = 0, frame = 8
  85              		@ frame_needed = 0, uses_anonymous_args = 0
  86              	.LVL1:
  87 0000 00B5     		push	{lr}
  88              		.cfi_def_cfa_offset 4
  89              		.cfi_offset 14, -4
  90 0002 074B     		ldr	r3, .L12
  91              		.loc 1 30 0
  92 0004 0749     		ldr	r1, .L12+4
  93              		.loc 1 29 0
  94 0006 1A68     		ldr	r2, [r3]
  95              		.loc 1 31 0
  96 0008 085C     		ldrb	r0, [r1, r0]	@ zero_extendqisi2
  97              	.LVL2:
  98              		.loc 1 29 0
  99 000a 83B0     		sub	sp, sp, #12
 100              		.cfi_def_cfa_offset 16
 101              		.loc 1 29 0
 102 000c 0192     		str	r2, [sp, #4]
 103              		.loc 1 31 0
 104 000e 019A     		ldr	r2, [sp, #4]
 105 0010 1B68     		ldr	r3, [r3]
 106 0012 9A42     		cmp	r2, r3
 107 0014 02D1     		bne	.L11
 108 0016 03B0     		add	sp, sp, #12
 109              		.cfi_remember_state
 110              		.cfi_def_cfa_offset 4
 111              		@ sp needed
 112 0018 5DF804FB 		ldr	pc, [sp], #4
 113              	.L11:
 114              		.cfi_restore_state
ARM GAS  C:\Users\41786\AppData\Local\Temp\ccWrufIS.s 			page 3


 115 001c FFF7FEFF 		bl	__stack_chk_fail
 116              	.LVL3:
 117              	.L13:
 118              		.align	2
 119              	.L12:
 120 0020 00000000 		.word	__stack_chk_guard
 121 0024 00000000 		.word	.LANCHOR0
 122              		.cfi_endproc
 123              	.LFE1:
 124              		.size	get_obstacle_condition, .-get_obstacle_condition
 125              		.section	.text.get_valeur_capteur,"ax",%progbits
 126              		.align	1
 127              		.p2align 4,,15
 128              		.global	get_valeur_capteur
 129              		.syntax unified
 130              		.thumb
 131              		.thumb_func
 132              		.fpu fpv4-sp-d16
 133              		.type	get_valeur_capteur, %function
 134              	get_valeur_capteur:
 135              	.LFB2:
 136              		.loc 1 34 0
 137              		.cfi_startproc
 138              		@ args = 0, pretend = 0, frame = 8
 139              		@ frame_needed = 0, uses_anonymous_args = 0
 140              	.LVL4:
 141 0000 00B5     		push	{lr}
 142              		.cfi_def_cfa_offset 4
 143              		.cfi_offset 14, -4
 144 0002 084B     		ldr	r3, .L18
 145              		.loc 1 35 0
 146 0004 0849     		ldr	r1, .L18+4
 147              		.loc 1 34 0
 148 0006 1A68     		ldr	r2, [r3]
 149              		.loc 1 36 0
 150 0008 51F82000 		ldr	r0, [r1, r0, lsl #2]
 151              	.LVL5:
 152              		.loc 1 34 0
 153 000c 83B0     		sub	sp, sp, #12
 154              		.cfi_def_cfa_offset 16
 155              		.loc 1 34 0
 156 000e 0192     		str	r2, [sp, #4]
 157              		.loc 1 36 0
 158 0010 019A     		ldr	r2, [sp, #4]
 159 0012 1B68     		ldr	r3, [r3]
 160 0014 9A42     		cmp	r2, r3
 161 0016 02D1     		bne	.L17
 162 0018 03B0     		add	sp, sp, #12
 163              		.cfi_remember_state
 164              		.cfi_def_cfa_offset 4
 165              		@ sp needed
 166 001a 5DF804FB 		ldr	pc, [sp], #4
 167              	.L17:
 168              		.cfi_restore_state
 169 001e FFF7FEFF 		bl	__stack_chk_fail
 170              	.LVL6:
 171              	.L19:
ARM GAS  C:\Users\41786\AppData\Local\Temp\ccWrufIS.s 			page 4


 172 0022 00BF     		.align	2
 173              	.L18:
 174 0024 00000000 		.word	__stack_chk_guard
 175 0028 00000000 		.word	.LANCHOR1
 176              		.cfi_endproc
 177              	.LFE2:
 178              		.size	get_valeur_capteur, .-get_valeur_capteur
 179              		.section	.text.valeurs_calibrees,"ax",%progbits
 180              		.align	1
 181              		.p2align 4,,15
 182              		.global	valeurs_calibrees
 183              		.syntax unified
 184              		.thumb
 185              		.thumb_func
 186              		.fpu fpv4-sp-d16
 187              		.type	valeurs_calibrees, %function
 188              	valeurs_calibrees:
 189              	.LFB3:
 190              		.loc 1 39 0
 191              		.cfi_startproc
 192              		@ args = 0, pretend = 0, frame = 8
 193              		@ frame_needed = 0, uses_anonymous_args = 0
 194 0000 2DE9F043 		push	{r4, r5, r6, r7, r8, r9, lr}
 195              		.cfi_def_cfa_offset 28
 196              		.cfi_offset 4, -28
 197              		.cfi_offset 5, -24
 198              		.cfi_offset 6, -20
 199              		.cfi_offset 7, -16
 200              		.cfi_offset 8, -12
 201              		.cfi_offset 9, -8
 202              		.cfi_offset 14, -4
 203 0004 DFF84880 		ldr	r8, .L28+4
 204 0008 DFF84890 		ldr	r9, .L28+8
 205 000c D8F80030 		ldr	r3, [r8]
 206 0010 0E4F     		ldr	r7, .L28
 207 0012 83B0     		sub	sp, sp, #12
 208              		.cfi_def_cfa_offset 40
 209              	.LBB2:
 210              		.loc 1 40 0
 211 0014 0024     		movs	r4, #0
 212              	.LBE2:
 213              		.loc 1 39 0
 214 0016 0193     		str	r3, [sp, #4]
 215              	.LVL7:
 216              	.LBB3:
 217              		.loc 1 51 0
 218 0018 2646     		mov	r6, r4
 219              		.loc 1 46 0
 220 001a 0125     		movs	r5, #1
 221              	.LVL8:
 222              	.L23:
 223              		.loc 1 43 0
 224 001c 2046     		mov	r0, r4
 225 001e FFF7FEFF 		bl	get_calibrated_prox
 226              	.LVL9:
 227              		.loc 1 46 0
 228 0022 9628     		cmp	r0, #150
ARM GAS  C:\Users\41786\AppData\Local\Temp\ccWrufIS.s 			page 5


 229 0024 34BF     		ite	cc
 230 0026 3346     		movcc	r3, r6
 231 0028 2B46     		movcs	r3, r5
 232 002a 3B55     		strb	r3, [r7, r4]
 233              		.loc 1 40 0
 234 002c 0134     		adds	r4, r4, #1
 235              	.LVL10:
 236 002e 082C     		cmp	r4, #8
 237              		.loc 1 43 0
 238 0030 49F8040F 		str	r0, [r9, #4]!
 239              		.loc 1 40 0
 240 0034 F2D1     		bne	.L23
 241              	.LBE3:
 242              		.loc 1 54 0
 243 0036 019A     		ldr	r2, [sp, #4]
 244 0038 D8F80030 		ldr	r3, [r8]
 245 003c 9A42     		cmp	r2, r3
 246 003e 02D1     		bne	.L27
 247 0040 03B0     		add	sp, sp, #12
 248              		.cfi_remember_state
 249              		.cfi_def_cfa_offset 28
 250              		@ sp needed
 251 0042 BDE8F083 		pop	{r4, r5, r6, r7, r8, r9, pc}
 252              	.LVL11:
 253              	.L27:
 254              		.cfi_restore_state
 255 0046 FFF7FEFF 		bl	__stack_chk_fail
 256              	.LVL12:
 257              	.L29:
 258 004a 00BF     		.align	2
 259              	.L28:
 260 004c 00000000 		.word	.LANCHOR0
 261 0050 00000000 		.word	__stack_chk_guard
 262 0054 FCFFFFFF 		.word	.LANCHOR1-4
 263              		.cfi_endproc
 264              	.LFE3:
 265              		.size	valeurs_calibrees, .-valeurs_calibrees
 266              		.section	.bss.obstacle,"aw",%nobits
 267              		.align	2
 268              		.set	.LANCHOR0,. + 0
 269              		.type	obstacle, %object
 270              		.size	obstacle, 8
 271              	obstacle:
 272 0000 00000000 		.space	8
 272      00000000 
 273              		.section	.bss.val_calibrees,"aw",%nobits
 274              		.align	2
 275              		.set	.LANCHOR1,. + 0
 276              		.type	val_calibrees, %object
 277              		.size	val_calibrees, 32
 278              	val_calibrees:
 279 0000 00000000 		.space	32
 279      00000000 
 279      00000000 
 279      00000000 
 279      00000000 
 280              		.text
ARM GAS  C:\Users\41786\AppData\Local\Temp\ccWrufIS.s 			page 6


 281              	.Letext0:
 282              		.file 2 "c:\\users\\41786\\desktop\\epfl\\microinfo\\eclipse_e-puck2\\tools\\gcc-arm-none-eabi-7-2
 283              		.file 3 "c:\\users\\41786\\desktop\\epfl\\microinfo\\eclipse_e-puck2\\tools\\gcc-arm-none-eabi-7-2
 284              		.file 4 "reception_capteur_IR.h"
 285              		.file 5 "../../lib/e-puck2_main-processor/src/sensors/proximity.h"
 286              		.section	.debug_info,"",%progbits
 287              	.Ldebug_info0:
 288 0000 FC010000 		.4byte	0x1fc
 289 0004 0400     		.2byte	0x4
 290 0006 00000000 		.4byte	.Ldebug_abbrev0
 291 000a 04       		.byte	0x4
 292 000b 01       		.uleb128 0x1
 293 000c 44010000 		.4byte	.LASF28
 294 0010 0C       		.byte	0xc
 295 0011 27000000 		.4byte	.LASF29
 296 0015 70000000 		.4byte	.LASF30
 297 0019 18000000 		.4byte	.Ldebug_ranges0+0x18
 298 001d 00000000 		.4byte	0
 299 0021 00000000 		.4byte	.Ldebug_line0
 300 0025 02       		.uleb128 0x2
 301 0026 01       		.byte	0x1
 302 0027 06       		.byte	0x6
 303 0028 47030000 		.4byte	.LASF0
 304 002c 02       		.uleb128 0x2
 305 002d 01       		.byte	0x1
 306 002e 08       		.byte	0x8
 307 002f 62000000 		.4byte	.LASF1
 308 0033 02       		.uleb128 0x2
 309 0034 02       		.byte	0x2
 310 0035 05       		.byte	0x5
 311 0036 1C030000 		.4byte	.LASF2
 312 003a 02       		.uleb128 0x2
 313 003b 02       		.byte	0x2
 314 003c 07       		.byte	0x7
 315 003d DF000000 		.4byte	.LASF3
 316 0041 03       		.uleb128 0x3
 317 0042 00000000 		.4byte	.LASF5
 318 0046 02       		.byte	0x2
 319 0047 4D       		.byte	0x4d
 320 0048 4C000000 		.4byte	0x4c
 321 004c 02       		.uleb128 0x2
 322 004d 04       		.byte	0x4
 323 004e 05       		.byte	0x5
 324 004f 3E030000 		.4byte	.LASF4
 325 0053 03       		.uleb128 0x3
 326 0054 30010000 		.4byte	.LASF6
 327 0058 02       		.byte	0x2
 328 0059 4F       		.byte	0x4f
 329 005a 5E000000 		.4byte	0x5e
 330 005e 02       		.uleb128 0x2
 331 005f 04       		.byte	0x4
 332 0060 07       		.byte	0x7
 333 0061 B9000000 		.4byte	.LASF7
 334 0065 02       		.uleb128 0x2
 335 0066 08       		.byte	0x8
 336 0067 05       		.byte	0x5
 337 0068 D8020000 		.4byte	.LASF8
ARM GAS  C:\Users\41786\AppData\Local\Temp\ccWrufIS.s 			page 7


 338 006c 02       		.uleb128 0x2
 339 006d 08       		.byte	0x8
 340 006e 07       		.byte	0x7
 341 006f A6020000 		.4byte	.LASF9
 342 0073 04       		.uleb128 0x4
 343 0074 04       		.byte	0x4
 344 0075 05       		.byte	0x5
 345 0076 696E7400 		.ascii	"int\000"
 346 007a 02       		.uleb128 0x2
 347 007b 04       		.byte	0x4
 348 007c 07       		.byte	0x7
 349 007d 88020000 		.4byte	.LASF10
 350 0081 03       		.uleb128 0x3
 351 0082 D0020000 		.4byte	.LASF11
 352 0086 03       		.byte	0x3
 353 0087 2C       		.byte	0x2c
 354 0088 41000000 		.4byte	0x41
 355 008c 03       		.uleb128 0x3
 356 008d 35030000 		.4byte	.LASF12
 357 0091 03       		.byte	0x3
 358 0092 30       		.byte	0x30
 359 0093 53000000 		.4byte	0x53
 360 0097 05       		.uleb128 0x5
 361 0098 07       		.byte	0x7
 362 0099 01       		.byte	0x1
 363 009a 2C000000 		.4byte	0x2c
 364 009e 04       		.byte	0x4
 365 009f 08       		.byte	0x8
 366 00a0 D5000000 		.4byte	0xd5
 367 00a4 06       		.uleb128 0x6
 368 00a5 08030000 		.4byte	.LASF13
 369 00a9 00       		.byte	0
 370 00aa 06       		.uleb128 0x6
 371 00ab A2000000 		.4byte	.LASF14
 372 00af 01       		.byte	0x1
 373 00b0 06       		.uleb128 0x6
 374 00b1 18000000 		.4byte	.LASF15
 375 00b5 02       		.byte	0x2
 376 00b6 06       		.uleb128 0x6
 377 00b7 BD020000 		.4byte	.LASF16
 378 00bb 03       		.byte	0x3
 379 00bc 06       		.uleb128 0x6
 380 00bd F2000000 		.4byte	.LASF17
 381 00c1 04       		.byte	0x4
 382 00c2 06       		.uleb128 0x6
 383 00c3 26030000 		.4byte	.LASF18
 384 00c7 05       		.byte	0x5
 385 00c8 06       		.uleb128 0x6
 386 00c9 05010000 		.4byte	.LASF19
 387 00cd 06       		.byte	0x6
 388 00ce 06       		.uleb128 0x6
 389 00cf 19010000 		.4byte	.LASF20
 390 00d3 07       		.byte	0x7
 391 00d4 00       		.byte	0
 392 00d5 07       		.uleb128 0x7
 393 00d6 8C000000 		.4byte	0x8c
 394 00da E5000000 		.4byte	0xe5
ARM GAS  C:\Users\41786\AppData\Local\Temp\ccWrufIS.s 			page 8


 395 00de 08       		.uleb128 0x8
 396 00df 7A000000 		.4byte	0x7a
 397 00e3 07       		.byte	0x7
 398 00e4 00       		.byte	0
 399 00e5 09       		.uleb128 0x9
 400 00e6 0A000000 		.4byte	.LASF22
 401 00ea 01       		.byte	0x1
 402 00eb 0B       		.byte	0xb
 403 00ec D5000000 		.4byte	0xd5
 404 00f0 05       		.uleb128 0x5
 405 00f1 03       		.byte	0x3
 406 00f2 00000000 		.4byte	val_calibrees
 407 00f6 07       		.uleb128 0x7
 408 00f7 06010000 		.4byte	0x106
 409 00fb 06010000 		.4byte	0x106
 410 00ff 08       		.uleb128 0x8
 411 0100 7A000000 		.4byte	0x7a
 412 0104 07       		.byte	0x7
 413 0105 00       		.byte	0
 414 0106 02       		.uleb128 0x2
 415 0107 01       		.byte	0x1
 416 0108 02       		.byte	0x2
 417 0109 53030000 		.4byte	.LASF21
 418 010d 09       		.uleb128 0x9
 419 010e 3B010000 		.4byte	.LASF23
 420 0112 01       		.byte	0x1
 421 0113 0D       		.byte	0xd
 422 0114 F6000000 		.4byte	0xf6
 423 0118 05       		.uleb128 0x5
 424 0119 03       		.byte	0x3
 425 011a 00000000 		.4byte	obstacle
 426 011e 0A       		.uleb128 0xa
 427 011f 59030000 		.4byte	.LASF31
 428 0123 01       		.byte	0x1
 429 0124 26       		.byte	0x26
 430 0125 00000000 		.4byte	.LFB3
 431 0129 58000000 		.4byte	.LFE3-.LFB3
 432 012d 01       		.uleb128 0x1
 433 012e 9C       		.byte	0x9c
 434 012f 64010000 		.4byte	0x164
 435 0133 0B       		.uleb128 0xb
 436 0134 00000000 		.4byte	.Ldebug_ranges0+0
 437 0138 5A010000 		.4byte	0x15a
 438 013c 0C       		.uleb128 0xc
 439 013d 6900     		.ascii	"i\000"
 440 013f 01       		.byte	0x1
 441 0140 28       		.byte	0x28
 442 0141 73000000 		.4byte	0x73
 443 0145 00000000 		.4byte	.LLST2
 444 0149 0D       		.uleb128 0xd
 445 014a 22000000 		.4byte	.LVL9
 446 014e EB010000 		.4byte	0x1eb
 447 0152 0E       		.uleb128 0xe
 448 0153 01       		.uleb128 0x1
 449 0154 50       		.byte	0x50
 450 0155 02       		.uleb128 0x2
 451 0156 74       		.byte	0x74
ARM GAS  C:\Users\41786\AppData\Local\Temp\ccWrufIS.s 			page 9


 452 0157 00       		.sleb128 0
 453 0158 00       		.byte	0
 454 0159 00       		.byte	0
 455 015a 0F       		.uleb128 0xf
 456 015b 4A000000 		.4byte	.LVL12
 457 015f F6010000 		.4byte	0x1f6
 458 0163 00       		.byte	0
 459 0164 10       		.uleb128 0x10
 460 0165 F5020000 		.4byte	.LASF24
 461 0169 01       		.byte	0x1
 462 016a 21       		.byte	0x21
 463 016b 8C000000 		.4byte	0x8c
 464 016f 00000000 		.4byte	.LFB2
 465 0173 2C000000 		.4byte	.LFE2-.LFB2
 466 0177 01       		.uleb128 0x1
 467 0178 9C       		.byte	0x9c
 468 0179 96010000 		.4byte	0x196
 469 017d 11       		.uleb128 0x11
 470 017e E6020000 		.4byte	.LASF26
 471 0182 01       		.byte	0x1
 472 0183 21       		.byte	0x21
 473 0184 81000000 		.4byte	0x81
 474 0188 1F000000 		.4byte	.LLST1
 475 018c 0F       		.uleb128 0xf
 476 018d 22000000 		.4byte	.LVL6
 477 0191 F6010000 		.4byte	0x1f6
 478 0195 00       		.byte	0
 479 0196 10       		.uleb128 0x10
 480 0197 4B000000 		.4byte	.LASF25
 481 019b 01       		.byte	0x1
 482 019c 1C       		.byte	0x1c
 483 019d 06010000 		.4byte	0x106
 484 01a1 00000000 		.4byte	.LFB1
 485 01a5 28000000 		.4byte	.LFE1-.LFB1
 486 01a9 01       		.uleb128 0x1
 487 01aa 9C       		.byte	0x9c
 488 01ab C8010000 		.4byte	0x1c8
 489 01af 11       		.uleb128 0x11
 490 01b0 E6020000 		.4byte	.LASF26
 491 01b4 01       		.byte	0x1
 492 01b5 1C       		.byte	0x1c
 493 01b6 81000000 		.4byte	0x81
 494 01ba 40000000 		.4byte	.LLST0
 495 01be 0F       		.uleb128 0xf
 496 01bf 20000000 		.4byte	.LVL3
 497 01c3 F6010000 		.4byte	0x1f6
 498 01c7 00       		.byte	0
 499 01c8 10       		.uleb128 0x10
 500 01c9 3E000000 		.4byte	.LASF27
 501 01cd 01       		.byte	0x1
 502 01ce 13       		.byte	0x13
 503 01cf 06010000 		.4byte	0x106
 504 01d3 00000000 		.4byte	.LFB0
 505 01d7 2C000000 		.4byte	.LFE0-.LFB0
 506 01db 01       		.uleb128 0x1
 507 01dc 9C       		.byte	0x9c
 508 01dd EB010000 		.4byte	0x1eb
ARM GAS  C:\Users\41786\AppData\Local\Temp\ccWrufIS.s 			page 10


 509 01e1 0F       		.uleb128 0xf
 510 01e2 24000000 		.4byte	.LVL0
 511 01e6 F6010000 		.4byte	0x1f6
 512 01ea 00       		.byte	0
 513 01eb 12       		.uleb128 0x12
 514 01ec CB000000 		.4byte	.LASF32
 515 01f0 CB000000 		.4byte	.LASF32
 516 01f4 05       		.byte	0x5
 517 01f5 37       		.byte	0x37
 518 01f6 13       		.uleb128 0x13
 519 01f7 95020000 		.4byte	.LASF33
 520 01fb 95020000 		.4byte	.LASF33
 521 01ff 00       		.byte	0
 522              		.section	.debug_abbrev,"",%progbits
 523              	.Ldebug_abbrev0:
 524 0000 01       		.uleb128 0x1
 525 0001 11       		.uleb128 0x11
 526 0002 01       		.byte	0x1
 527 0003 25       		.uleb128 0x25
 528 0004 0E       		.uleb128 0xe
 529 0005 13       		.uleb128 0x13
 530 0006 0B       		.uleb128 0xb
 531 0007 03       		.uleb128 0x3
 532 0008 0E       		.uleb128 0xe
 533 0009 1B       		.uleb128 0x1b
 534 000a 0E       		.uleb128 0xe
 535 000b 55       		.uleb128 0x55
 536 000c 17       		.uleb128 0x17
 537 000d 11       		.uleb128 0x11
 538 000e 01       		.uleb128 0x1
 539 000f 10       		.uleb128 0x10
 540 0010 17       		.uleb128 0x17
 541 0011 00       		.byte	0
 542 0012 00       		.byte	0
 543 0013 02       		.uleb128 0x2
 544 0014 24       		.uleb128 0x24
 545 0015 00       		.byte	0
 546 0016 0B       		.uleb128 0xb
 547 0017 0B       		.uleb128 0xb
 548 0018 3E       		.uleb128 0x3e
 549 0019 0B       		.uleb128 0xb
 550 001a 03       		.uleb128 0x3
 551 001b 0E       		.uleb128 0xe
 552 001c 00       		.byte	0
 553 001d 00       		.byte	0
 554 001e 03       		.uleb128 0x3
 555 001f 16       		.uleb128 0x16
 556 0020 00       		.byte	0
 557 0021 03       		.uleb128 0x3
 558 0022 0E       		.uleb128 0xe
 559 0023 3A       		.uleb128 0x3a
 560 0024 0B       		.uleb128 0xb
 561 0025 3B       		.uleb128 0x3b
 562 0026 0B       		.uleb128 0xb
 563 0027 49       		.uleb128 0x49
 564 0028 13       		.uleb128 0x13
 565 0029 00       		.byte	0
ARM GAS  C:\Users\41786\AppData\Local\Temp\ccWrufIS.s 			page 11


 566 002a 00       		.byte	0
 567 002b 04       		.uleb128 0x4
 568 002c 24       		.uleb128 0x24
 569 002d 00       		.byte	0
 570 002e 0B       		.uleb128 0xb
 571 002f 0B       		.uleb128 0xb
 572 0030 3E       		.uleb128 0x3e
 573 0031 0B       		.uleb128 0xb
 574 0032 03       		.uleb128 0x3
 575 0033 08       		.uleb128 0x8
 576 0034 00       		.byte	0
 577 0035 00       		.byte	0
 578 0036 05       		.uleb128 0x5
 579 0037 04       		.uleb128 0x4
 580 0038 01       		.byte	0x1
 581 0039 3E       		.uleb128 0x3e
 582 003a 0B       		.uleb128 0xb
 583 003b 0B       		.uleb128 0xb
 584 003c 0B       		.uleb128 0xb
 585 003d 49       		.uleb128 0x49
 586 003e 13       		.uleb128 0x13
 587 003f 3A       		.uleb128 0x3a
 588 0040 0B       		.uleb128 0xb
 589 0041 3B       		.uleb128 0x3b
 590 0042 0B       		.uleb128 0xb
 591 0043 01       		.uleb128 0x1
 592 0044 13       		.uleb128 0x13
 593 0045 00       		.byte	0
 594 0046 00       		.byte	0
 595 0047 06       		.uleb128 0x6
 596 0048 28       		.uleb128 0x28
 597 0049 00       		.byte	0
 598 004a 03       		.uleb128 0x3
 599 004b 0E       		.uleb128 0xe
 600 004c 1C       		.uleb128 0x1c
 601 004d 0B       		.uleb128 0xb
 602 004e 00       		.byte	0
 603 004f 00       		.byte	0
 604 0050 07       		.uleb128 0x7
 605 0051 01       		.uleb128 0x1
 606 0052 01       		.byte	0x1
 607 0053 49       		.uleb128 0x49
 608 0054 13       		.uleb128 0x13
 609 0055 01       		.uleb128 0x1
 610 0056 13       		.uleb128 0x13
 611 0057 00       		.byte	0
 612 0058 00       		.byte	0
 613 0059 08       		.uleb128 0x8
 614 005a 21       		.uleb128 0x21
 615 005b 00       		.byte	0
 616 005c 49       		.uleb128 0x49
 617 005d 13       		.uleb128 0x13
 618 005e 2F       		.uleb128 0x2f
 619 005f 0B       		.uleb128 0xb
 620 0060 00       		.byte	0
 621 0061 00       		.byte	0
 622 0062 09       		.uleb128 0x9
ARM GAS  C:\Users\41786\AppData\Local\Temp\ccWrufIS.s 			page 12


 623 0063 34       		.uleb128 0x34
 624 0064 00       		.byte	0
 625 0065 03       		.uleb128 0x3
 626 0066 0E       		.uleb128 0xe
 627 0067 3A       		.uleb128 0x3a
 628 0068 0B       		.uleb128 0xb
 629 0069 3B       		.uleb128 0x3b
 630 006a 0B       		.uleb128 0xb
 631 006b 49       		.uleb128 0x49
 632 006c 13       		.uleb128 0x13
 633 006d 02       		.uleb128 0x2
 634 006e 18       		.uleb128 0x18
 635 006f 00       		.byte	0
 636 0070 00       		.byte	0
 637 0071 0A       		.uleb128 0xa
 638 0072 2E       		.uleb128 0x2e
 639 0073 01       		.byte	0x1
 640 0074 3F       		.uleb128 0x3f
 641 0075 19       		.uleb128 0x19
 642 0076 03       		.uleb128 0x3
 643 0077 0E       		.uleb128 0xe
 644 0078 3A       		.uleb128 0x3a
 645 0079 0B       		.uleb128 0xb
 646 007a 3B       		.uleb128 0x3b
 647 007b 0B       		.uleb128 0xb
 648 007c 27       		.uleb128 0x27
 649 007d 19       		.uleb128 0x19
 650 007e 11       		.uleb128 0x11
 651 007f 01       		.uleb128 0x1
 652 0080 12       		.uleb128 0x12
 653 0081 06       		.uleb128 0x6
 654 0082 40       		.uleb128 0x40
 655 0083 18       		.uleb128 0x18
 656 0084 9742     		.uleb128 0x2117
 657 0086 19       		.uleb128 0x19
 658 0087 01       		.uleb128 0x1
 659 0088 13       		.uleb128 0x13
 660 0089 00       		.byte	0
 661 008a 00       		.byte	0
 662 008b 0B       		.uleb128 0xb
 663 008c 0B       		.uleb128 0xb
 664 008d 01       		.byte	0x1
 665 008e 55       		.uleb128 0x55
 666 008f 17       		.uleb128 0x17
 667 0090 01       		.uleb128 0x1
 668 0091 13       		.uleb128 0x13
 669 0092 00       		.byte	0
 670 0093 00       		.byte	0
 671 0094 0C       		.uleb128 0xc
 672 0095 34       		.uleb128 0x34
 673 0096 00       		.byte	0
 674 0097 03       		.uleb128 0x3
 675 0098 08       		.uleb128 0x8
 676 0099 3A       		.uleb128 0x3a
 677 009a 0B       		.uleb128 0xb
 678 009b 3B       		.uleb128 0x3b
 679 009c 0B       		.uleb128 0xb
ARM GAS  C:\Users\41786\AppData\Local\Temp\ccWrufIS.s 			page 13


 680 009d 49       		.uleb128 0x49
 681 009e 13       		.uleb128 0x13
 682 009f 02       		.uleb128 0x2
 683 00a0 17       		.uleb128 0x17
 684 00a1 00       		.byte	0
 685 00a2 00       		.byte	0
 686 00a3 0D       		.uleb128 0xd
 687 00a4 898201   		.uleb128 0x4109
 688 00a7 01       		.byte	0x1
 689 00a8 11       		.uleb128 0x11
 690 00a9 01       		.uleb128 0x1
 691 00aa 31       		.uleb128 0x31
 692 00ab 13       		.uleb128 0x13
 693 00ac 00       		.byte	0
 694 00ad 00       		.byte	0
 695 00ae 0E       		.uleb128 0xe
 696 00af 8A8201   		.uleb128 0x410a
 697 00b2 00       		.byte	0
 698 00b3 02       		.uleb128 0x2
 699 00b4 18       		.uleb128 0x18
 700 00b5 9142     		.uleb128 0x2111
 701 00b7 18       		.uleb128 0x18
 702 00b8 00       		.byte	0
 703 00b9 00       		.byte	0
 704 00ba 0F       		.uleb128 0xf
 705 00bb 898201   		.uleb128 0x4109
 706 00be 00       		.byte	0
 707 00bf 11       		.uleb128 0x11
 708 00c0 01       		.uleb128 0x1
 709 00c1 31       		.uleb128 0x31
 710 00c2 13       		.uleb128 0x13
 711 00c3 00       		.byte	0
 712 00c4 00       		.byte	0
 713 00c5 10       		.uleb128 0x10
 714 00c6 2E       		.uleb128 0x2e
 715 00c7 01       		.byte	0x1
 716 00c8 3F       		.uleb128 0x3f
 717 00c9 19       		.uleb128 0x19
 718 00ca 03       		.uleb128 0x3
 719 00cb 0E       		.uleb128 0xe
 720 00cc 3A       		.uleb128 0x3a
 721 00cd 0B       		.uleb128 0xb
 722 00ce 3B       		.uleb128 0x3b
 723 00cf 0B       		.uleb128 0xb
 724 00d0 27       		.uleb128 0x27
 725 00d1 19       		.uleb128 0x19
 726 00d2 49       		.uleb128 0x49
 727 00d3 13       		.uleb128 0x13
 728 00d4 11       		.uleb128 0x11
 729 00d5 01       		.uleb128 0x1
 730 00d6 12       		.uleb128 0x12
 731 00d7 06       		.uleb128 0x6
 732 00d8 40       		.uleb128 0x40
 733 00d9 18       		.uleb128 0x18
 734 00da 9742     		.uleb128 0x2117
 735 00dc 19       		.uleb128 0x19
 736 00dd 01       		.uleb128 0x1
ARM GAS  C:\Users\41786\AppData\Local\Temp\ccWrufIS.s 			page 14


 737 00de 13       		.uleb128 0x13
 738 00df 00       		.byte	0
 739 00e0 00       		.byte	0
 740 00e1 11       		.uleb128 0x11
 741 00e2 05       		.uleb128 0x5
 742 00e3 00       		.byte	0
 743 00e4 03       		.uleb128 0x3
 744 00e5 0E       		.uleb128 0xe
 745 00e6 3A       		.uleb128 0x3a
 746 00e7 0B       		.uleb128 0xb
 747 00e8 3B       		.uleb128 0x3b
 748 00e9 0B       		.uleb128 0xb
 749 00ea 49       		.uleb128 0x49
 750 00eb 13       		.uleb128 0x13
 751 00ec 02       		.uleb128 0x2
 752 00ed 17       		.uleb128 0x17
 753 00ee 00       		.byte	0
 754 00ef 00       		.byte	0
 755 00f0 12       		.uleb128 0x12
 756 00f1 2E       		.uleb128 0x2e
 757 00f2 00       		.byte	0
 758 00f3 3F       		.uleb128 0x3f
 759 00f4 19       		.uleb128 0x19
 760 00f5 3C       		.uleb128 0x3c
 761 00f6 19       		.uleb128 0x19
 762 00f7 6E       		.uleb128 0x6e
 763 00f8 0E       		.uleb128 0xe
 764 00f9 03       		.uleb128 0x3
 765 00fa 0E       		.uleb128 0xe
 766 00fb 3A       		.uleb128 0x3a
 767 00fc 0B       		.uleb128 0xb
 768 00fd 3B       		.uleb128 0x3b
 769 00fe 0B       		.uleb128 0xb
 770 00ff 00       		.byte	0
 771 0100 00       		.byte	0
 772 0101 13       		.uleb128 0x13
 773 0102 2E       		.uleb128 0x2e
 774 0103 00       		.byte	0
 775 0104 3F       		.uleb128 0x3f
 776 0105 19       		.uleb128 0x19
 777 0106 3C       		.uleb128 0x3c
 778 0107 19       		.uleb128 0x19
 779 0108 6E       		.uleb128 0x6e
 780 0109 0E       		.uleb128 0xe
 781 010a 03       		.uleb128 0x3
 782 010b 0E       		.uleb128 0xe
 783 010c 00       		.byte	0
 784 010d 00       		.byte	0
 785 010e 00       		.byte	0
 786              		.section	.debug_loc,"",%progbits
 787              	.Ldebug_loc0:
 788              	.LLST2:
 789 0000 18000000 		.4byte	.LVL7
 790 0004 1C000000 		.4byte	.LVL8
 791 0008 0200     		.2byte	0x2
 792 000a 30       		.byte	0x30
 793 000b 9F       		.byte	0x9f
ARM GAS  C:\Users\41786\AppData\Local\Temp\ccWrufIS.s 			page 15


 794 000c 1C000000 		.4byte	.LVL8
 795 0010 58000000 		.4byte	.LFE3
 796 0014 0100     		.2byte	0x1
 797 0016 54       		.byte	0x54
 798 0017 00000000 		.4byte	0
 799 001b 00000000 		.4byte	0
 800              	.LLST1:
 801 001f 00000000 		.4byte	.LVL4
 802 0023 0C000000 		.4byte	.LVL5
 803 0027 0100     		.2byte	0x1
 804 0029 50       		.byte	0x50
 805 002a 0C000000 		.4byte	.LVL5
 806 002e 2C000000 		.4byte	.LFE2
 807 0032 0400     		.2byte	0x4
 808 0034 F3       		.byte	0xf3
 809 0035 01       		.uleb128 0x1
 810 0036 50       		.byte	0x50
 811 0037 9F       		.byte	0x9f
 812 0038 00000000 		.4byte	0
 813 003c 00000000 		.4byte	0
 814              	.LLST0:
 815 0040 00000000 		.4byte	.LVL1
 816 0044 0A000000 		.4byte	.LVL2
 817 0048 0100     		.2byte	0x1
 818 004a 50       		.byte	0x50
 819 004b 0A000000 		.4byte	.LVL2
 820 004f 28000000 		.4byte	.LFE1
 821 0053 0400     		.2byte	0x4
 822 0055 F3       		.byte	0xf3
 823 0056 01       		.uleb128 0x1
 824 0057 50       		.byte	0x50
 825 0058 9F       		.byte	0x9f
 826 0059 00000000 		.4byte	0
 827 005d 00000000 		.4byte	0
 828              		.section	.debug_aranges,"",%progbits
 829 0000 34000000 		.4byte	0x34
 830 0004 0200     		.2byte	0x2
 831 0006 00000000 		.4byte	.Ldebug_info0
 832 000a 04       		.byte	0x4
 833 000b 00       		.byte	0
 834 000c 0000     		.2byte	0
 835 000e 0000     		.2byte	0
 836 0010 00000000 		.4byte	.LFB0
 837 0014 2C000000 		.4byte	.LFE0-.LFB0
 838 0018 00000000 		.4byte	.LFB1
 839 001c 28000000 		.4byte	.LFE1-.LFB1
 840 0020 00000000 		.4byte	.LFB2
 841 0024 2C000000 		.4byte	.LFE2-.LFB2
 842 0028 00000000 		.4byte	.LFB3
 843 002c 58000000 		.4byte	.LFE3-.LFB3
 844 0030 00000000 		.4byte	0
 845 0034 00000000 		.4byte	0
 846              		.section	.debug_ranges,"",%progbits
 847              	.Ldebug_ranges0:
 848 0000 14000000 		.4byte	.LBB2
 849 0004 16000000 		.4byte	.LBE2
 850 0008 18000000 		.4byte	.LBB3
ARM GAS  C:\Users\41786\AppData\Local\Temp\ccWrufIS.s 			page 16


 851 000c 36000000 		.4byte	.LBE3
 852 0010 00000000 		.4byte	0
 853 0014 00000000 		.4byte	0
 854 0018 00000000 		.4byte	.LFB0
 855 001c 2C000000 		.4byte	.LFE0
 856 0020 00000000 		.4byte	.LFB1
 857 0024 28000000 		.4byte	.LFE1
 858 0028 00000000 		.4byte	.LFB2
 859 002c 2C000000 		.4byte	.LFE2
 860 0030 00000000 		.4byte	.LFB3
 861 0034 58000000 		.4byte	.LFE3
 862 0038 00000000 		.4byte	0
 863 003c 00000000 		.4byte	0
 864              		.section	.debug_line,"",%progbits
 865              	.Ldebug_line0:
 866 0000 07020000 		.section	.debug_str,"MS",%progbits,1
 866      0200A401 
 866      00000201 
 866      FB0E0D00 
 866      01010101 
 867              	.LASF5:
 868 0000 5F5F696E 		.ascii	"__int32_t\000"
 868      7433325F 
 868      7400
 869              	.LASF22:
 870 000a 76616C5F 		.ascii	"val_calibrees\000"
 870      63616C69 
 870      62726565 
 870      7300
 871              	.LASF15:
 872 0018 43415054 		.ascii	"CAPTEUR_DROITE\000"
 872      4555525F 
 872      44524F49 
 872      544500
 873              	.LASF29:
 874 0027 72656365 		.ascii	"reception_capteur_IR.c\000"
 874      7074696F 
 874      6E5F6361 
 874      70746575 
 874      725F4952 
 875              	.LASF27:
 876 003e 63686563 		.ascii	"check_chemin\000"
 876      6B5F6368 
 876      656D696E 
 876      00
 877              	.LASF25:
 878 004b 6765745F 		.ascii	"get_obstacle_condition\000"
 878      6F627374 
 878      61636C65 
 878      5F636F6E 
 878      64697469 
 879              	.LASF1:
 880 0062 756E7369 		.ascii	"unsigned char\000"
 880      676E6564 
 880      20636861 
 880      7200
 881              	.LASF30:
ARM GAS  C:\Users\41786\AppData\Local\Temp\ccWrufIS.s 			page 17


 882 0070 433A5C55 		.ascii	"C:\\Users\\41786\\Desktop\\epfl\\microinfo\\projet\\"
 882      73657273 
 882      5C343137 
 882      38365C44 
 882      65736B74 
 883 009d 6275636B 		.ascii	"buck\000"
 883      00
 884              	.LASF14:
 885 00a2 43415054 		.ascii	"CAPTEUR_HAUT_DROITE_45\000"
 885      4555525F 
 885      48415554 
 885      5F44524F 
 885      4954455F 
 886              	.LASF7:
 887 00b9 6C6F6E67 		.ascii	"long unsigned int\000"
 887      20756E73 
 887      69676E65 
 887      6420696E 
 887      7400
 888              	.LASF32:
 889 00cb 6765745F 		.ascii	"get_calibrated_prox\000"
 889      63616C69 
 889      62726174 
 889      65645F70 
 889      726F7800 
 890              	.LASF3:
 891 00df 73686F72 		.ascii	"short unsigned int\000"
 891      7420756E 
 891      7369676E 
 891      65642069 
 891      6E7400
 892              	.LASF17:
 893 00f2 43415054 		.ascii	"CAPTEUR_BAS_GAUCHE\000"
 893      4555525F 
 893      4241535F 
 893      47415543 
 893      484500
 894              	.LASF19:
 895 0105 43415054 		.ascii	"CAPTEUR_HAUT_GAUCHE\000"
 895      4555525F 
 895      48415554 
 895      5F474155 
 895      43484500 
 896              	.LASF20:
 897 0119 43415054 		.ascii	"CAPTEUR_HAUT_GAUCHE_45\000"
 897      4555525F 
 897      48415554 
 897      5F474155 
 897      4348455F 
 898              	.LASF6:
 899 0130 5F5F7569 		.ascii	"__uint32_t\000"
 899      6E743332 
 899      5F7400
 900              	.LASF23:
 901 013b 6F627374 		.ascii	"obstacle\000"
 901      61636C65 
 901      00
ARM GAS  C:\Users\41786\AppData\Local\Temp\ccWrufIS.s 			page 18


 902              	.LASF28:
 903 0144 474E5520 		.ascii	"GNU C11 7.2.1 20170904 (release) [ARM/embedded-7-br"
 903      43313120 
 903      372E322E 
 903      31203230 
 903      31373039 
 904 0177 616E6368 		.ascii	"anch revision 255204] -mcpu=cortex-m4 -mfloat-abi=h"
 904      20726576 
 904      6973696F 
 904      6E203235 
 904      35323034 
 905 01aa 61726420 		.ascii	"ard -mfpu=fpv4-sp-d16 -mno-thumb-interwork -mthumb "
 905      2D6D6670 
 905      753D6670 
 905      76342D73 
 905      702D6431 
 906 01dd 2D676764 		.ascii	"-ggdb -O2 -fomit-frame-pointer -falign-functions=16"
 906      62202D4F 
 906      32202D66 
 906      6F6D6974 
 906      2D667261 
 907 0210 202D666E 		.ascii	" -fno-strict-aliasing -fstack-protector-all -ffunct"
 907      6F2D7374 
 907      72696374 
 907      2D616C69 
 907      6173696E 
 908 0243 696F6E2D 		.ascii	"ion-sections -fdata-sections -fno-common -fsingle-p"
 908      73656374 
 908      696F6E73 
 908      202D6664 
 908      6174612D 
 909 0276 72656369 		.ascii	"recision-constant\000"
 909      73696F6E 
 909      2D636F6E 
 909      7374616E 
 909      7400
 910              	.LASF10:
 911 0288 756E7369 		.ascii	"unsigned int\000"
 911      676E6564 
 911      20696E74 
 911      00
 912              	.LASF33:
 913 0295 5F5F7374 		.ascii	"__stack_chk_fail\000"
 913      61636B5F 
 913      63686B5F 
 913      6661696C 
 913      00
 914              	.LASF9:
 915 02a6 6C6F6E67 		.ascii	"long long unsigned int\000"
 915      206C6F6E 
 915      6720756E 
 915      7369676E 
 915      65642069 
 916              	.LASF16:
 917 02bd 43415054 		.ascii	"CAPTEUR_BAS_DROITE\000"
 917      4555525F 
 917      4241535F 
ARM GAS  C:\Users\41786\AppData\Local\Temp\ccWrufIS.s 			page 19


 917      44524F49 
 917      544500
 918              	.LASF11:
 919 02d0 696E7433 		.ascii	"int32_t\000"
 919      325F7400 
 920              	.LASF8:
 921 02d8 6C6F6E67 		.ascii	"long long int\000"
 921      206C6F6E 
 921      6720696E 
 921      7400
 922              	.LASF26:
 923 02e6 6E756D65 		.ascii	"numero_capteur\000"
 923      726F5F63 
 923      61707465 
 923      757200
 924              	.LASF24:
 925 02f5 6765745F 		.ascii	"get_valeur_capteur\000"
 925      76616C65 
 925      75725F63 
 925      61707465 
 925      757200
 926              	.LASF13:
 927 0308 43415054 		.ascii	"CAPTEUR_HAUT_DROITE\000"
 927      4555525F 
 927      48415554 
 927      5F44524F 
 927      49544500 
 928              	.LASF2:
 929 031c 73686F72 		.ascii	"short int\000"
 929      7420696E 
 929      7400
 930              	.LASF18:
 931 0326 43415054 		.ascii	"CAPTEUR_GAUCHE\000"
 931      4555525F 
 931      47415543 
 931      484500
 932              	.LASF12:
 933 0335 75696E74 		.ascii	"uint32_t\000"
 933      33325F74 
 933      00
 934              	.LASF4:
 935 033e 6C6F6E67 		.ascii	"long int\000"
 935      20696E74 
 935      00
 936              	.LASF0:
 937 0347 7369676E 		.ascii	"signed char\000"
 937      65642063 
 937      68617200 
 938              	.LASF21:
 939 0353 5F426F6F 		.ascii	"_Bool\000"
 939      6C00
 940              	.LASF31:
 941 0359 76616C65 		.ascii	"valeurs_calibrees\000"
 941      7572735F 
 941      63616C69 
 941      62726565 
 941      7300
ARM GAS  C:\Users\41786\AppData\Local\Temp\ccWrufIS.s 			page 20


 942              		.ident	"GCC: (GNU Tools for Arm Embedded Processors 7-2017-q4-major) 7.2.1 20170904 (release) [ARM
ARM GAS  C:\Users\41786\AppData\Local\Temp\ccWrufIS.s 			page 21


DEFINED SYMBOLS
                            *ABS*:00000000 reception_capteur_IR.c
C:\Users\41786\AppData\Local\Temp\ccWrufIS.s:18     .text.check_chemin:00000000 $t
C:\Users\41786\AppData\Local\Temp\ccWrufIS.s:26     .text.check_chemin:00000000 check_chemin
C:\Users\41786\AppData\Local\Temp\ccWrufIS.s:66     .text.check_chemin:00000024 $d
C:\Users\41786\AppData\Local\Temp\ccWrufIS.s:72     .text.get_obstacle_condition:00000000 $t
C:\Users\41786\AppData\Local\Temp\ccWrufIS.s:80     .text.get_obstacle_condition:00000000 get_obstacle_condition
C:\Users\41786\AppData\Local\Temp\ccWrufIS.s:120    .text.get_obstacle_condition:00000020 $d
C:\Users\41786\AppData\Local\Temp\ccWrufIS.s:126    .text.get_valeur_capteur:00000000 $t
C:\Users\41786\AppData\Local\Temp\ccWrufIS.s:134    .text.get_valeur_capteur:00000000 get_valeur_capteur
C:\Users\41786\AppData\Local\Temp\ccWrufIS.s:174    .text.get_valeur_capteur:00000024 $d
C:\Users\41786\AppData\Local\Temp\ccWrufIS.s:180    .text.valeurs_calibrees:00000000 $t
C:\Users\41786\AppData\Local\Temp\ccWrufIS.s:188    .text.valeurs_calibrees:00000000 valeurs_calibrees
C:\Users\41786\AppData\Local\Temp\ccWrufIS.s:260    .text.valeurs_calibrees:0000004c $d
C:\Users\41786\AppData\Local\Temp\ccWrufIS.s:267    .bss.obstacle:00000000 $d
C:\Users\41786\AppData\Local\Temp\ccWrufIS.s:271    .bss.obstacle:00000000 obstacle
C:\Users\41786\AppData\Local\Temp\ccWrufIS.s:274    .bss.val_calibrees:00000000 $d
C:\Users\41786\AppData\Local\Temp\ccWrufIS.s:278    .bss.val_calibrees:00000000 val_calibrees

UNDEFINED SYMBOLS
__stack_chk_fail
__stack_chk_guard
get_calibrated_prox
