ARM GAS  C:\Users\guill\AppData\Local\Temp\ccDQdlHc.s 			page 1


   1              		.cpu cortex-m4
   2              		.eabi_attribute 27, 1
   3              		.eabi_attribute 28, 1
   4              		.eabi_attribute 20, 1
   5              		.eabi_attribute 21, 1
   6              		.eabi_attribute 23, 3
   7              		.eabi_attribute 24, 1
   8              		.eabi_attribute 25, 1
   9              		.eabi_attribute 26, 1
  10              		.eabi_attribute 30, 2
  11              		.eabi_attribute 34, 1
  12              		.eabi_attribute 18, 4
  13              		.file	"reception_capteur_IR.c"
  14              		.text
  15              	.Ltext0:
  16              		.cfi_sections	.debug_frame
  17              		.section	.text.check_environnement,"ax",%progbits
  18              		.align	1
  19              		.p2align 4,,15
  20              		.global	check_environnement
  21              		.syntax unified
  22              		.thumb
  23              		.thumb_func
  24              		.fpu fpv4-sp-d16
  25              		.type	check_environnement, %function
  26              	check_environnement:
  27              	.LFB257:
  28              		.file 1 "reception_capteur_IR.c"
  29              		.loc 1 20 0
  30              		.cfi_startproc
  31              		@ args = 0, pretend = 0, frame = 8
  32              		@ frame_needed = 0, uses_anonymous_args = 0
  33 0000 70B5     		push	{r4, r5, r6, lr}
  34              		.cfi_def_cfa_offset 16
  35              		.cfi_offset 4, -16
  36              		.cfi_offset 5, -12
  37              		.cfi_offset 6, -8
  38              		.cfi_offset 14, -4
  39 0002 114E     		ldr	r6, .L11
  40              	.LBB2:
  41              		.loc 1 26 0
  42 0004 114D     		ldr	r5, .L11+4
  43              	.LBE2:
  44              		.loc 1 20 0
  45 0006 3368     		ldr	r3, [r6]
  46 0008 82B0     		sub	sp, sp, #8
  47              		.cfi_def_cfa_offset 24
  48              	.LBB3:
  49              		.loc 1 21 0
  50 000a 0024     		movs	r4, #0
  51              	.LBE3:
  52              		.loc 1 20 0
  53 000c 0193     		str	r3, [sp, #4]
  54              	.LVL0:
  55              	.L4:
  56              	.LBB4:
  57              		.loc 1 23 0
ARM GAS  C:\Users\guill\AppData\Local\Temp\ccDQdlHc.s 			page 2


  58 000e 2046     		mov	r0, r4
  59 0010 FFF7FEFF 		bl	get_calibrated_prox
  60              	.LVL1:
  61              		.loc 1 24 0
  62 0014 B0F5167F 		cmp	r0, #600
  63 0018 05D9     		bls	.L2
  64              		.loc 1 26 0
  65 001a 2B88     		ldrh	r3, [r5]
  66 001c 0133     		adds	r3, r3, #1
  67 001e 1BB2     		sxth	r3, r3
  68              		.loc 1 27 0
  69 0020 032B     		cmp	r3, #3
  70              		.loc 1 26 0
  71 0022 2B80     		strh	r3, [r5]	@ movhi
  72              		.loc 1 27 0
  73 0024 0AD0     		beq	.L9
  74              	.L2:
  75              		.loc 1 21 0
  76 0026 0134     		adds	r4, r4, #1
  77              	.LVL2:
  78 0028 082C     		cmp	r4, #8
  79 002a F0D1     		bne	.L4
  80              	.L3:
  81              	.LBE4:
  82              		.loc 1 36 0
  83 002c 019A     		ldr	r2, [sp, #4]
  84 002e 3368     		ldr	r3, [r6]
  85 0030 9A42     		cmp	r2, r3
  86 0032 4FF00800 		mov	r0, #8
  87 0036 04D1     		bne	.L10
  88 0038 02B0     		add	sp, sp, #8
  89              		.cfi_remember_state
  90              		.cfi_def_cfa_offset 16
  91              		@ sp needed
  92 003a 70BD     		pop	{r4, r5, r6, pc}
  93              	.LVL3:
  94              	.L9:
  95              		.cfi_restore_state
  96              	.LBB5:
  97              		.loc 1 29 0
  98 003c 0023     		movs	r3, #0
  99 003e 2B80     		strh	r3, [r5]	@ movhi
 100              		.loc 1 30 0
 101 0040 F4E7     		b	.L3
 102              	.L10:
 103              	.LBE5:
 104              		.loc 1 36 0
 105 0042 FFF7FEFF 		bl	__stack_chk_fail
 106              	.LVL4:
 107              	.L12:
 108 0046 00BF     		.align	2
 109              	.L11:
 110 0048 00000000 		.word	__stack_chk_guard
 111 004c 00000000 		.word	.LANCHOR0
 112              		.cfi_endproc
 113              	.LFE257:
 114              		.size	check_environnement, .-check_environnement
ARM GAS  C:\Users\guill\AppData\Local\Temp\ccDQdlHc.s 			page 3


 115              		.section	.text.valeurs_ambiantes,"ax",%progbits
 116              		.align	1
 117              		.p2align 4,,15
 118              		.global	valeurs_ambiantes
 119              		.syntax unified
 120              		.thumb
 121              		.thumb_func
 122              		.fpu fpv4-sp-d16
 123              		.type	valeurs_ambiantes, %function
 124              	valeurs_ambiantes:
 125              	.LFB258:
 126              		.loc 1 39 0
 127              		.cfi_startproc
 128              		@ args = 0, pretend = 0, frame = 8
 129              		@ frame_needed = 0, uses_anonymous_args = 0
 130 0000 30B5     		push	{r4, r5, lr}
 131              		.cfi_def_cfa_offset 12
 132              		.cfi_offset 4, -12
 133              		.cfi_offset 5, -8
 134              		.cfi_offset 14, -4
 135 0002 094D     		ldr	r5, .L19
 136 0004 83B0     		sub	sp, sp, #12
 137              		.cfi_def_cfa_offset 24
 138              		.loc 1 39 0
 139 0006 2B68     		ldr	r3, [r5]
 140 0008 0193     		str	r3, [sp, #4]
 141              	.LVL5:
 142              	.LBB6:
 143              		.loc 1 40 0
 144 000a 0024     		movs	r4, #0
 145              	.LVL6:
 146              	.L14:
 147              		.loc 1 42 0 discriminator 3
 148 000c 2046     		mov	r0, r4
 149              		.loc 1 40 0 discriminator 3
 150 000e 0134     		adds	r4, r4, #1
 151              	.LVL7:
 152              		.loc 1 42 0 discriminator 3
 153 0010 FFF7FEFF 		bl	get_ambient_light
 154              	.LVL8:
 155              		.loc 1 40 0 discriminator 3
 156 0014 082C     		cmp	r4, #8
 157 0016 F9D1     		bne	.L14
 158              	.LBE6:
 159              		.loc 1 45 0
 160 0018 019A     		ldr	r2, [sp, #4]
 161 001a 2B68     		ldr	r3, [r5]
 162 001c 9A42     		cmp	r2, r3
 163 001e 01D1     		bne	.L18
 164 0020 03B0     		add	sp, sp, #12
 165              		.cfi_remember_state
 166              		.cfi_def_cfa_offset 12
 167              		@ sp needed
 168 0022 30BD     		pop	{r4, r5, pc}
 169              	.LVL9:
 170              	.L18:
 171              		.cfi_restore_state
ARM GAS  C:\Users\guill\AppData\Local\Temp\ccDQdlHc.s 			page 4


 172 0024 FFF7FEFF 		bl	__stack_chk_fail
 173              	.LVL10:
 174              	.L20:
 175              		.align	2
 176              	.L19:
 177 0028 00000000 		.word	__stack_chk_guard
 178              		.cfi_endproc
 179              	.LFE258:
 180              		.size	valeurs_ambiantes, .-valeurs_ambiantes
 181              		.section	.text.valeurs_absolues,"ax",%progbits
 182              		.align	1
 183              		.p2align 4,,15
 184              		.global	valeurs_absolues
 185              		.syntax unified
 186              		.thumb
 187              		.thumb_func
 188              		.fpu fpv4-sp-d16
 189              		.type	valeurs_absolues, %function
 190              	valeurs_absolues:
 191              	.LFB259:
 192              		.loc 1 48 0
 193              		.cfi_startproc
 194              		@ args = 0, pretend = 0, frame = 8
 195              		@ frame_needed = 0, uses_anonymous_args = 0
 196 0000 30B5     		push	{r4, r5, lr}
 197              		.cfi_def_cfa_offset 12
 198              		.cfi_offset 4, -12
 199              		.cfi_offset 5, -8
 200              		.cfi_offset 14, -4
 201 0002 094D     		ldr	r5, .L27
 202 0004 83B0     		sub	sp, sp, #12
 203              		.cfi_def_cfa_offset 24
 204              		.loc 1 48 0
 205 0006 2B68     		ldr	r3, [r5]
 206 0008 0193     		str	r3, [sp, #4]
 207              	.LVL11:
 208              	.LBB7:
 209              		.loc 1 49 0
 210 000a 0024     		movs	r4, #0
 211              	.LVL12:
 212              	.L22:
 213              		.loc 1 51 0 discriminator 3
 214 000c 2046     		mov	r0, r4
 215              		.loc 1 49 0 discriminator 3
 216 000e 0134     		adds	r4, r4, #1
 217              	.LVL13:
 218              		.loc 1 51 0 discriminator 3
 219 0010 FFF7FEFF 		bl	get_prox
 220              	.LVL14:
 221              		.loc 1 49 0 discriminator 3
 222 0014 082C     		cmp	r4, #8
 223 0016 F9D1     		bne	.L22
 224              	.LBE7:
 225              		.loc 1 54 0
 226 0018 019A     		ldr	r2, [sp, #4]
 227 001a 2B68     		ldr	r3, [r5]
 228 001c 9A42     		cmp	r2, r3
ARM GAS  C:\Users\guill\AppData\Local\Temp\ccDQdlHc.s 			page 5


 229 001e 01D1     		bne	.L26
 230 0020 03B0     		add	sp, sp, #12
 231              		.cfi_remember_state
 232              		.cfi_def_cfa_offset 12
 233              		@ sp needed
 234 0022 30BD     		pop	{r4, r5, pc}
 235              	.LVL15:
 236              	.L26:
 237              		.cfi_restore_state
 238 0024 FFF7FEFF 		bl	__stack_chk_fail
 239              	.LVL16:
 240              	.L28:
 241              		.align	2
 242              	.L27:
 243 0028 00000000 		.word	__stack_chk_guard
 244              		.cfi_endproc
 245              	.LFE259:
 246              		.size	valeurs_absolues, .-valeurs_absolues
 247              		.section	.text.valeurs_calibrees,"ax",%progbits
 248              		.align	1
 249              		.p2align 4,,15
 250              		.global	valeurs_calibrees
 251              		.syntax unified
 252              		.thumb
 253              		.thumb_func
 254              		.fpu fpv4-sp-d16
 255              		.type	valeurs_calibrees, %function
 256              	valeurs_calibrees:
 257              	.LFB260:
 258              		.loc 1 57 0
 259              		.cfi_startproc
 260              		@ args = 0, pretend = 0, frame = 8
 261              		@ frame_needed = 0, uses_anonymous_args = 0
 262 0000 30B5     		push	{r4, r5, lr}
 263              		.cfi_def_cfa_offset 12
 264              		.cfi_offset 4, -12
 265              		.cfi_offset 5, -8
 266              		.cfi_offset 14, -4
 267 0002 094D     		ldr	r5, .L35
 268 0004 83B0     		sub	sp, sp, #12
 269              		.cfi_def_cfa_offset 24
 270              		.loc 1 57 0
 271 0006 2B68     		ldr	r3, [r5]
 272 0008 0193     		str	r3, [sp, #4]
 273              	.LVL17:
 274              	.LBB8:
 275              		.loc 1 58 0
 276 000a 0024     		movs	r4, #0
 277              	.LVL18:
 278              	.L30:
 279              		.loc 1 60 0 discriminator 3
 280 000c 2046     		mov	r0, r4
 281              		.loc 1 58 0 discriminator 3
 282 000e 0134     		adds	r4, r4, #1
 283              	.LVL19:
 284              		.loc 1 60 0 discriminator 3
 285 0010 FFF7FEFF 		bl	get_calibrated_prox
ARM GAS  C:\Users\guill\AppData\Local\Temp\ccDQdlHc.s 			page 6


 286              	.LVL20:
 287              		.loc 1 58 0 discriminator 3
 288 0014 082C     		cmp	r4, #8
 289 0016 F9D1     		bne	.L30
 290              	.LBE8:
 291              		.loc 1 63 0
 292 0018 019A     		ldr	r2, [sp, #4]
 293 001a 2B68     		ldr	r3, [r5]
 294 001c 9A42     		cmp	r2, r3
 295 001e 01D1     		bne	.L34
 296 0020 03B0     		add	sp, sp, #12
 297              		.cfi_remember_state
 298              		.cfi_def_cfa_offset 12
 299              		@ sp needed
 300 0022 30BD     		pop	{r4, r5, pc}
 301              	.LVL21:
 302              	.L34:
 303              		.cfi_restore_state
 304 0024 FFF7FEFF 		bl	__stack_chk_fail
 305              	.LVL22:
 306              	.L36:
 307              		.align	2
 308              	.L35:
 309 0028 00000000 		.word	__stack_chk_guard
 310              		.cfi_endproc
 311              	.LFE260:
 312              		.size	valeurs_calibrees, .-valeurs_calibrees
 313              		.section	.bss.valeurs_au_dessus_seuil,"aw",%nobits
 314              		.align	1
 315              		.set	.LANCHOR0,. + 0
 316              		.type	valeurs_au_dessus_seuil, %object
 317              		.size	valeurs_au_dessus_seuil, 2
 318              	valeurs_au_dessus_seuil:
 319 0000 0000     		.space	2
 320              		.text
 321              	.Letext0:
 322              		.file 2 "c:\\microinfo\\eclipse_e-puck2\\tools\\gcc-arm-none-eabi-7-2017-q4-major-win32\\arm-none-
 323              		.file 3 "c:\\microinfo\\eclipse_e-puck2\\tools\\gcc-arm-none-eabi-7-2017-q4-major-win32\\arm-none-
 324              		.file 4 "c:\\microinfo\\eclipse_e-puck2\\tools\\gcc-arm-none-eabi-7-2017-q4-major-win32\\lib\\gcc\
 325              		.file 5 "../../lib/e-puck2_main-processor/ChibiOS//os/rt/ports/ARMCMx/compilers/GCC/chtypes.h"
 326              		.file 6 "../../lib/e-puck2_main-processor/ChibiOS//os/rt/include/chsystypes.h"
 327              		.file 7 "../../lib/e-puck2_main-processor/ChibiOS//os/rt/include/chschd.h"
 328              		.file 8 "../../lib/e-puck2_main-processor/ChibiOS//os/ext/CMSIS/include/core_cm4.h"
 329              		.file 9 "../../lib/e-puck2_main-processor/ChibiOS//os/ext/CMSIS/ST/system_stm32f4xx.h"
 330              		.file 10 "../../lib/e-puck2_main-processor/ChibiOS//os/ext/CMSIS/ST/stm32f407xx.h"
 331              		.file 11 "../../lib/e-puck2_main-processor/ChibiOS//os/rt/ports/ARMCMx/chcore.h"
 332              		.file 12 "../../lib/e-puck2_main-processor/ChibiOS//os/rt/ports/ARMCMx/chcore_v7m.h"
 333              		.file 13 "../../lib/e-puck2_main-processor/ChibiOS//os/rt/include/chdebug.h"
 334              		.file 14 "../../lib/e-puck2_main-processor/ChibiOS//os/rt/include/chtm.h"
 335              		.file 15 "../../lib/e-puck2_main-processor/ChibiOS//os/rt/include/chstats.h"
 336              		.file 16 "../../lib/e-puck2_main-processor/ChibiOS//os/rt/include/chsem.h"
 337              		.file 17 "../../lib/e-puck2_main-processor/ChibiOS//os/rt/include/chmtx.h"
 338              		.file 18 "../../lib/e-puck2_main-processor/ChibiOS//os/rt/include/chregistry.h"
 339              		.file 19 "../../lib/e-puck2_main-processor/ChibiOS//os/rt/include/chevents.h"
 340              		.file 20 "../../lib/e-puck2_main-processor/ChibiOS//os/rt/include/chqueues.h"
 341              		.file 21 "../../lib/e-puck2_main-processor/ChibiOS//os/hal/ports/STM32/STM32F4xx/stm32_dma.h"
 342              		.file 22 "../../lib/e-puck2_main-processor/ChibiOS//os/hal/include/hal_ioblock.h"
ARM GAS  C:\Users\guill\AppData\Local\Temp\ccDQdlHc.s 			page 7


 343              		.file 23 "../../lib/e-puck2_main-processor/ChibiOS//os/hal/ports/STM32/LLD/GPIOv2/pal_lld.h"
 344              		.file 24 "../../lib/e-puck2_main-processor/ChibiOS//os/hal/include/adc.h"
 345              		.file 25 "../../lib/e-puck2_main-processor/ChibiOS//os/hal/ports/STM32/STM32F4xx/adc_lld.h"
 346              		.file 26 "../../lib/e-puck2_main-processor/ChibiOS//os/hal/include/can.h"
 347              		.file 27 "../../lib/e-puck2_main-processor/ChibiOS//os/hal/ports/STM32/LLD/can_lld.h"
 348              		.file 28 "../../lib/e-puck2_main-processor/ChibiOS//os/hal/include/dac.h"
 349              		.file 29 "../../lib/e-puck2_main-processor/ChibiOS//os/hal/ports/STM32/LLD/DACv1/dac_lld.h"
 350              		.file 30 "../../lib/e-puck2_main-processor/ChibiOS//os/hal/include/ext.h"
 351              		.file 31 "../../lib/e-puck2_main-processor/ChibiOS//os/hal/ports/STM32/LLD/ext_lld.h"
 352              		.file 32 "../../lib/e-puck2_main-processor/ChibiOS//os/hal/include/gpt.h"
 353              		.file 33 "../../lib/e-puck2_main-processor/ChibiOS//os/hal/ports/STM32/LLD/TIMv1/gpt_lld.h"
 354              		.file 34 "../../lib/e-puck2_main-processor/ChibiOS//os/hal/ports/STM32/LLD/TIMv1/stm32_tim.h"
 355              		.file 35 "../../lib/e-puck2_main-processor/ChibiOS//os/hal/include/i2c.h"
 356              		.file 36 "../../lib/e-puck2_main-processor/ChibiOS//os/hal/ports/STM32/LLD/I2Cv1/i2c_lld.h"
 357              		.file 37 "../../lib/e-puck2_main-processor/ChibiOS//os/hal/include/i2s.h"
 358              		.file 38 "../../lib/e-puck2_main-processor/ChibiOS//os/hal/ports/STM32/LLD/SPIv1/i2s_lld.h"
 359              		.file 39 "../../lib/e-puck2_main-processor/ChibiOS//os/hal/include/pwm.h"
 360              		.file 40 "../../lib/e-puck2_main-processor/ChibiOS//os/hal/ports/STM32/LLD/TIMv1/pwm_lld.h"
 361              		.file 41 "../../lib/e-puck2_main-processor/ChibiOS//os/hal/include/serial.h"
 362              		.file 42 "../../lib/e-puck2_main-processor/ChibiOS//os/hal/ports/STM32/LLD/USARTv1/serial_lld.h"
 363              		.file 43 "../../lib/e-puck2_main-processor/ChibiOS//os/hal/include/sdc.h"
 364              		.file 44 "../../lib/e-puck2_main-processor/ChibiOS//os/hal/ports/STM32/LLD/sdc_lld.h"
 365              		.file 45 "../../lib/e-puck2_main-processor/ChibiOS//os/hal/include/spi.h"
 366              		.file 46 "../../lib/e-puck2_main-processor/ChibiOS//os/hal/ports/STM32/LLD/SPIv1/spi_lld.h"
 367              		.file 47 "../../lib/e-puck2_main-processor/ChibiOS//os/hal/include/usb.h"
 368              		.file 48 "../../lib/e-puck2_main-processor/ChibiOS//os/hal/ports/STM32/LLD/OTGv1/usb_lld.h"
 369              		.file 49 "../../lib/e-puck2_main-processor/ChibiOS//os/hal/ports/STM32/LLD/OTGv1/stm32_otg.h"
 370              		.file 50 "../../lib/e-puck2_main-processor/ChibiOS//os/hal/include/serial_usb.h"
 371              		.file 51 "../../lib/e-puck2_main-processor/ChibiOS_ext/os/hal/include/../ports/STM32/STM32F4xx/dcm
 372              		.file 52 "c:\\microinfo\\eclipse_e-puck2\\tools\\gcc-arm-none-eabi-7-2017-q4-major-win32\\arm-none
 373              		.file 53 "c:\\microinfo\\eclipse_e-puck2\\tools\\gcc-arm-none-eabi-7-2017-q4-major-win32\\arm-none
 374              		.file 54 "c:\\microinfo\\eclipse_e-puck2\\tools\\gcc-arm-none-eabi-7-2017-q4-major-win32\\arm-none
 375              		.file 55 "../../lib/e-puck2_main-processor/src/msgbus/messagebus.h"
 376              		.file 56 "c:\\microinfo\\eclipse_e-puck2\\tools\\gcc-arm-none-eabi-7-2017-q4-major-win32\\arm-none
 377              		.file 57 "c:\\microinfo\\eclipse_e-puck2\\tools\\gcc-arm-none-eabi-7-2017-q4-major-win32\\arm-none
 378              		.file 58 "../../lib/e-puck2_main-processor/src/parameter/parameter.h"
 379              		.file 59 "./main.h"
 380              		.file 60 "../../lib/e-puck2_main-processor/src/usbcfg.h"
 381              		.file 61 "../../lib/e-puck2_main-processor/src/sensors/proximity.h"