ARM GAS  C:\Users\41786\AppData\Local\Temp\ccAsm2AM.s 			page 1


   1              		.cpu cortex-m4
   2              		.eabi_attribute 27, 1
   3              		.eabi_attribute 28, 1
   4              		.eabi_attribute 20, 1
   5              		.eabi_attribute 21, 1
   6              		.eabi_attribute 23, 3
   7              		.eabi_attribute 24, 1
   8              		.eabi_attribute 25, 1
   9              		.eabi_attribute 26, 1
  10              		.eabi_attribute 30, 2
  11              		.eabi_attribute 34, 1
  12              		.eabi_attribute 18, 4
  13              		.file	"traitement_son.c"
  14              		.text
  15              	.Ltext0:
  16              		.cfi_sections	.debug_frame
  17              		.section	.text.doFFT_optimized.part.0,"ax",%progbits
  18              		.align	1
  19              		.p2align 4,,15
  20              		.syntax unified
  21              		.thumb
  22              		.thumb_func
  23              		.fpu fpv4-sp-d16
  24              		.type	doFFT_optimized.part.0, %function
  25              	doFFT_optimized.part.0:
  26              	.LFB295:
  27              		.file 1 "traitement_son.c"
  28              		.loc 1 65 0
  29              		.cfi_startproc
  30              		@ args = 0, pretend = 0, frame = 8
  31              		@ frame_needed = 0, uses_anonymous_args = 0
  32              	.LVL0:
  33 0000 00B5     		push	{lr}
  34              		.cfi_def_cfa_offset 4
  35              		.cfi_offset 14, -4
  36 0002 094B     		ldr	r3, .L7
  37 0004 83B0     		sub	sp, sp, #12
  38              		.cfi_def_cfa_offset 16
  39              		.loc 1 65 0
  40 0006 1A68     		ldr	r2, [r3]
  41 0008 0192     		str	r2, [sp, #4]
  42              	.LVL1:
  43              		.loc 1 67 0
  44 000a 019A     		ldr	r2, [sp, #4]
  45 000c 1B68     		ldr	r3, [r3]
  46 000e 9A42     		cmp	r2, r3
  47 0010 08D1     		bne	.L6
  48 0012 0146     		mov	r1, r0
  49 0014 0548     		ldr	r0, .L7+4
  50              	.LVL2:
  51 0016 0123     		movs	r3, #1
  52 0018 0022     		movs	r2, #0
  53              		.loc 1 69 0
  54 001a 03B0     		add	sp, sp, #12
  55              		.cfi_remember_state
  56              		.cfi_def_cfa_offset 4
  57              		@ sp needed
ARM GAS  C:\Users\41786\AppData\Local\Temp\ccAsm2AM.s 			page 2


  58 001c 5DF804EB 		ldr	lr, [sp], #4
  59              		.cfi_restore 14
  60              		.cfi_def_cfa_offset 0
  61              		.loc 1 67 0
  62 0020 FFF7FEBF 		b	arm_cfft_f32
  63              	.LVL3:
  64              	.L6:
  65              		.cfi_restore_state
  66 0024 FFF7FEFF 		bl	__stack_chk_fail
  67              	.LVL4:
  68              	.L8:
  69              		.align	2
  70              	.L7:
  71 0028 00000000 		.word	__stack_chk_guard
  72 002c 00000000 		.word	.LANCHOR0
  73              		.cfi_endproc
  74              	.LFE295:
  75              		.size	doFFT_optimized.part.0, .-doFFT_optimized.part.0
  76              		.section	.text.chprintf.constprop.1,"ax",%progbits
  77              		.align	1
  78              		.p2align 4,,15
  79              		.syntax unified
  80              		.thumb
  81              		.thumb_func
  82              		.fpu fpv4-sp-d16
  83              		.type	chprintf.constprop.1, %function
  84              	chprintf.constprop.1:
  85              	.LFB297:
  86              		.file 2 "../../lib/e-puck2_main-processor/ChibiOS//os/hal/lib/streams/chprintf.h"
  87              		.loc 2 69 0
  88              		.cfi_startproc
  89              		@ args = 4, pretend = 12, frame = 8
  90              		@ frame_needed = 0, uses_anonymous_args = 1
  91              	.LVL5:
  92 0000 0EB4     		push	{r1, r2, r3}
  93              		.cfi_def_cfa_offset 12
  94              		.cfi_offset 1, -12
  95              		.cfi_offset 2, -8
  96              		.cfi_offset 3, -4
  97 0002 10B5     		push	{r4, lr}
  98              		.cfi_def_cfa_offset 20
  99              		.cfi_offset 4, -20
 100              		.cfi_offset 14, -16
 101 0004 0A4C     		ldr	r4, .L13
 102              		.loc 2 74 0
 103 0006 0B49     		ldr	r1, .L13+4
 104              		.loc 2 69 0
 105 0008 2368     		ldr	r3, [r4]
 106              		.loc 2 74 0
 107 000a 0B48     		ldr	r0, .L13+8
 108              	.LVL6:
 109              		.loc 2 69 0
 110 000c 83B0     		sub	sp, sp, #12
 111              		.cfi_def_cfa_offset 32
 112              		.loc 2 69 0
 113 000e 0193     		str	r3, [sp, #4]
 114              	.LVL7:
ARM GAS  C:\Users\41786\AppData\Local\Temp\ccAsm2AM.s 			page 3


 115              		.loc 2 73 0
 116 0010 06AB     		add	r3, sp, #24
 117              		.loc 2 74 0
 118 0012 1A46     		mov	r2, r3
 119              		.loc 2 73 0
 120 0014 0093     		str	r3, [sp]
 121              		.loc 2 74 0
 122 0016 FFF7FEFF 		bl	chvprintf
 123              	.LVL8:
 124              		.loc 2 78 0
 125 001a 019A     		ldr	r2, [sp, #4]
 126 001c 2368     		ldr	r3, [r4]
 127 001e 9A42     		cmp	r2, r3
 128 0020 04D1     		bne	.L12
 129 0022 03B0     		add	sp, sp, #12
 130              		.cfi_remember_state
 131              		.cfi_def_cfa_offset 20
 132              		@ sp needed
 133 0024 BDE81040 		pop	{r4, lr}
 134              		.cfi_restore 14
 135              		.cfi_restore 4
 136              		.cfi_def_cfa_offset 12
 137 0028 03B0     		add	sp, sp, #12
 138              		.cfi_restore 3
 139              		.cfi_restore 2
 140              		.cfi_restore 1
 141              		.cfi_def_cfa_offset 0
 142 002a 7047     		bx	lr
 143              	.L12:
 144              		.cfi_restore_state
 145 002c FFF7FEFF 		bl	__stack_chk_fail
 146              	.LVL9:
 147              	.L14:
 148              		.align	2
 149              	.L13:
 150 0030 00000000 		.word	__stack_chk_guard
 151 0034 00000000 		.word	.LC2
 152 0038 00000000 		.word	SDU1
 153              		.cfi_endproc
 154              	.LFE297:
 155              		.size	chprintf.constprop.1, .-chprintf.constprop.1
 156              		.section	.text.doFFT_optimized,"ax",%progbits
 157              		.align	1
 158              		.p2align 4,,15
 159              		.global	doFFT_optimized
 160              		.syntax unified
 161              		.thumb
 162              		.thumb_func
 163              		.fpu fpv4-sp-d16
 164              		.type	doFFT_optimized, %function
 165              	doFFT_optimized:
 166              	.LFB290:
 167              		.loc 1 65 0
 168              		.cfi_startproc
 169              		@ args = 0, pretend = 0, frame = 8
 170              		@ frame_needed = 0, uses_anonymous_args = 0
 171              	.LVL10:
ARM GAS  C:\Users\41786\AppData\Local\Temp\ccAsm2AM.s 			page 4


 172 0000 00B5     		push	{lr}
 173              		.cfi_def_cfa_offset 4
 174              		.cfi_offset 14, -4
 175 0002 0C4B     		ldr	r3, .L22
 176 0004 83B0     		sub	sp, sp, #12
 177              		.cfi_def_cfa_offset 16
 178              		.loc 1 65 0
 179 0006 1A68     		ldr	r2, [r3]
 180 0008 0192     		str	r2, [sp, #4]
 181              		.loc 1 66 0
 182 000a B0F5806F 		cmp	r0, #1024
 183 000e 019A     		ldr	r2, [sp, #4]
 184 0010 1B68     		ldr	r3, [r3]
 185 0012 04D0     		beq	.L21
 186              		.loc 1 69 0
 187 0014 9A42     		cmp	r2, r3
 188 0016 0AD1     		bne	.L20
 189 0018 03B0     		add	sp, sp, #12
 190              		.cfi_remember_state
 191              		.cfi_def_cfa_offset 4
 192              		@ sp needed
 193 001a 5DF804FB 		ldr	pc, [sp], #4
 194              	.L21:
 195              		.cfi_restore_state
 196 001e 9A42     		cmp	r2, r3
 197 0020 05D1     		bne	.L20
 198 0022 0846     		mov	r0, r1
 199              	.LVL11:
 200 0024 03B0     		add	sp, sp, #12
 201              		.cfi_remember_state
 202              		.cfi_def_cfa_offset 4
 203              		@ sp needed
 204 0026 5DF804EB 		ldr	lr, [sp], #4
 205              		.cfi_restore 14
 206              		.cfi_def_cfa_offset 0
 207 002a FFF7FEBF 		b	doFFT_optimized.part.0
 208              	.LVL12:
 209              	.L20:
 210              		.cfi_restore_state
 211 002e FFF7FEFF 		bl	__stack_chk_fail
 212              	.LVL13:
 213              	.L23:
 214 0032 00BF     		.align	2
 215              	.L22:
 216 0034 00000000 		.word	__stack_chk_guard
 217              		.cfi_endproc
 218              	.LFE290:
 219              		.size	doFFT_optimized, .-doFFT_optimized
 220              		.global	__aeabi_f2d
 221              		.section	.text.traitement_data,"ax",%progbits
 222              		.align	1
 223              		.p2align 4,,15
 224              		.global	traitement_data
 225              		.syntax unified
 226              		.thumb
 227              		.thumb_func
 228              		.fpu fpv4-sp-d16
ARM GAS  C:\Users\41786\AppData\Local\Temp\ccAsm2AM.s 			page 5


 229              		.type	traitement_data, %function
 230              	traitement_data:
 231              	.LFB291:
 232              		.loc 1 75 0
 233              		.cfi_startproc
 234              		@ args = 0, pretend = 0, frame = 8
 235              		@ frame_needed = 0, uses_anonymous_args = 0
 236 0000 2DE9F041 		push	{r4, r5, r6, r7, r8, lr}
 237              		.cfi_def_cfa_offset 24
 238              		.cfi_offset 4, -24
 239              		.cfi_offset 5, -20
 240              		.cfi_offset 6, -16
 241              		.cfi_offset 7, -12
 242              		.cfi_offset 8, -8
 243              		.cfi_offset 14, -4
 244 0004 3E4F     		ldr	r7, .L44
 245              		.loc 1 76 0
 246 0006 9FED3F7A 		vldr.32	s14, .L44+4
 247              		.loc 1 75 0
 248 000a 3B68     		ldr	r3, [r7]
 249 000c 3E4C     		ldr	r4, .L44+8
 250 000e 3F48     		ldr	r0, .L44+12
 251 0010 3F49     		ldr	r1, .L44+16
 252 0012 404A     		ldr	r2, .L44+20
 253 0014 88B0     		sub	sp, sp, #32
 254              		.cfi_def_cfa_offset 56
 255              		.loc 1 77 0
 256 0016 4FF0FF35 		mov	r5, #-1
 257              		.loc 1 75 0
 258 001a 0793     		str	r3, [sp, #28]
 259              	.LVL14:
 260              		.loc 1 76 0
 261 001c F0EE475A 		vmov.f32	s11, s14
 262 0020 B0EE476A 		vmov.f32	s12, s14
 263 0024 F0EE476A 		vmov.f32	s13, s14
 264              		.loc 1 77 0
 265 0028 2E46     		mov	r6, r5
 266 002a A846     		mov	r8, r5
 267 002c AC46     		mov	ip, r5
 268              		.loc 1 75 0
 269 002e 0A23     		movs	r3, #10
 270              	.LVL15:
 271              	.L33:
 272              	.LBB39:
 273              		.loc 1 81 0
 274 0030 F4EC017A 		vldmia.32	r4!, {s15}
 275 0034 F4EEE67A 		vcmpe.f32	s15, s13
 276 0038 F1EE10FA 		vmrs	APSR_nzcv, FPSCR
 277              	.LVL16:
 278              		.loc 1 82 0
 279 003c C8BF     		it	gt
 280 003e F0EE676A 		vmovgt.f32	s13, s15
 281              		.loc 1 85 0
 282 0042 F2EC017A 		vldmia.32	r2!, {s15}
 283              	.LVL17:
 284 0046 F4EEC67A 		vcmpe.f32	s15, s12
 285              		.loc 1 83 0
ARM GAS  C:\Users\41786\AppData\Local\Temp\ccAsm2AM.s 			page 6


 286 004a C8BF     		it	gt
 287 004c 0FFA83FC 		sxthgt	ip, r3
 288              	.LVL18:
 289              		.loc 1 85 0
 290 0050 F1EE10FA 		vmrs	APSR_nzcv, FPSCR
 291              	.LVL19:
 292              		.loc 1 86 0
 293 0054 C8BF     		it	gt
 294 0056 B0EE676A 		vmovgt.f32	s12, s15
 295              		.loc 1 89 0
 296 005a F1EC017A 		vldmia.32	r1!, {s15}
 297              	.LVL20:
 298 005e F4EEC77A 		vcmpe.f32	s15, s14
 299              		.loc 1 87 0
 300 0062 C8BF     		it	gt
 301 0064 0FFA83F8 		sxthgt	r8, r3
 302              	.LVL21:
 303              		.loc 1 89 0
 304 0068 F1EE10FA 		vmrs	APSR_nzcv, FPSCR
 305              	.LVL22:
 306              		.loc 1 90 0
 307 006c C8BF     		it	gt
 308 006e B0EE677A 		vmovgt.f32	s14, s15
 309              		.loc 1 93 0
 310 0072 F0EC017A 		vldmia.32	r0!, {s15}
 311              	.LVL23:
 312 0076 F4EEE57A 		vcmpe.f32	s15, s11
 313              		.loc 1 91 0
 314 007a C8BF     		it	gt
 315 007c 1DB2     		sxthgt	r5, r3
 316              	.LVL24:
 317              		.loc 1 93 0
 318 007e F1EE10FA 		vmrs	APSR_nzcv, FPSCR
 319              	.LVL25:
 320              		.loc 1 95 0
 321 0082 C8BF     		it	gt
 322 0084 1EB2     		sxthgt	r6, r3
 323              	.LVL26:
 324 0086 03F10103 		add	r3, r3, #1
 325              	.LVL27:
 326              		.loc 1 94 0
 327 008a C8BF     		it	gt
 328 008c F0EE675A 		vmovgt.f32	s11, s15
 329              	.LVL28:
 330              		.loc 1 80 0
 331 0090 832B     		cmp	r3, #131
 332 0092 CDD1     		bne	.L33
 333              	.LBE39:
 334              		.loc 1 99 0
 335 0094 AE42     		cmp	r6, r5
 336 0096 06D0     		beq	.L42
 337              	.LVL29:
 338              	.L24:
 339              		.loc 1 104 0
 340 0098 079A     		ldr	r2, [sp, #28]
 341 009a 3B68     		ldr	r3, [r7]
 342 009c 9A42     		cmp	r2, r3
ARM GAS  C:\Users\41786\AppData\Local\Temp\ccAsm2AM.s 			page 7


 343 009e 2CD1     		bne	.L43
 344 00a0 08B0     		add	sp, sp, #32
 345              		.cfi_remember_state
 346              		.cfi_def_cfa_offset 24
 347              		@ sp needed
 348 00a2 BDE8F081 		pop	{r4, r5, r6, r7, r8, pc}
 349              	.LVL30:
 350              	.L42:
 351              		.cfi_restore_state
 352              		.loc 1 99 0 discriminator 1
 353 00a6 0A2E     		cmp	r6, #10
 354 00a8 F6DD     		ble	.L24
 355              		.loc 1 101 0
 356 00aa 1B4B     		ldr	r3, .L44+24
 357 00ac 03EB8C0C 		add	ip, r3, ip, lsl #2
 358              		.loc 1 102 0
 359 00b0 B600     		lsls	r6, r6, #2
 360              		.loc 1 100 0
 361 00b2 DCF80000 		ldr	r0, [ip]	@ float
 362 00b6 FFF7FEFF 		bl	__aeabi_f2d
 363              	.LVL31:
 364              		.loc 1 102 0
 365 00ba 184B     		ldr	r3, .L44+28
 366 00bc 3344     		add	r3, r3, r6
 367              		.loc 1 100 0
 368 00be 0446     		mov	r4, r0
 369 00c0 1868     		ldr	r0, [r3]	@ float
 370 00c2 0D46     		mov	r5, r1
 371 00c4 FFF7FEFF 		bl	__aeabi_f2d
 372              	.LVL32:
 373              		.loc 1 102 0
 374 00c8 154B     		ldr	r3, .L44+32
 375              		.loc 1 100 0
 376 00ca CDE90401 		strd	r0, [sp, #16]
 377              		.loc 1 102 0
 378 00ce 1E44     		add	r6, r6, r3
 379              		.loc 1 100 0
 380 00d0 3068     		ldr	r0, [r6]	@ float
 381 00d2 FFF7FEFF 		bl	__aeabi_f2d
 382              	.LVL33:
 383              		.loc 1 101 0
 384 00d6 134B     		ldr	r3, .L44+36
 385              		.loc 1 100 0
 386 00d8 CDE90201 		strd	r0, [sp, #8]
 387              		.loc 1 101 0
 388 00dc 03EB8808 		add	r8, r3, r8, lsl #2
 389              		.loc 1 100 0
 390 00e0 D8F80000 		ldr	r0, [r8]	@ float
 391 00e4 FFF7FEFF 		bl	__aeabi_f2d
 392              	.LVL34:
 393 00e8 2246     		mov	r2, r4
 394 00ea CDE90001 		strd	r0, [sp]
 395 00ee 2B46     		mov	r3, r5
 396 00f0 0D49     		ldr	r1, .L44+40
 397 00f2 0E48     		ldr	r0, .L44+44
 398 00f4 FFF7FEFF 		bl	chprintf.constprop.1
 399              	.LVL35:
ARM GAS  C:\Users\41786\AppData\Local\Temp\ccAsm2AM.s 			page 8


 400              		.loc 1 104 0
 401 00f8 CEE7     		b	.L24
 402              	.L43:
 403 00fa FFF7FEFF 		bl	__stack_chk_fail
 404              	.LVL36:
 405              	.L45:
 406 00fe 00BF     		.align	2
 407              	.L44:
 408 0100 00000000 		.word	__stack_chk_guard
 409 0104 00007A44 		.word	1148846080
 410 0108 28000000 		.word	micRight_output+40
 411 010c 28000000 		.word	micBack_output+40
 412 0110 28000000 		.word	micFront_output+40
 413 0114 28000000 		.word	micLeft_output+40
 414 0118 00000000 		.word	micRight_output
 415 011c 00000000 		.word	micBack_output
 416 0120 00000000 		.word	micFront_output
 417 0124 00000000 		.word	micLeft_output
 418 0128 00000000 		.word	.LC2
 419 012c 00000000 		.word	SDU1
 420              		.cfi_endproc
 421              	.LFE291:
 422              		.size	traitement_data, .-traitement_data
 423              		.section	.text.processAudioData,"ax",%progbits
 424              		.align	1
 425              		.p2align 4,,15
 426              		.global	processAudioData
 427              		.syntax unified
 428              		.thumb
 429              		.thumb_func
 430              		.fpu fpv4-sp-d16
 431              		.type	processAudioData, %function
 432              	processAudioData:
 433              	.LFB292:
 434              		.loc 1 114 0
 435              		.cfi_startproc
 436              		@ args = 0, pretend = 0, frame = 8
 437              		@ frame_needed = 0, uses_anonymous_args = 0
 438              	.LVL37:
 439 0000 2DE9F04F 		push	{r4, r5, r6, r7, r8, r9, r10, fp, lr}
 440              		.cfi_def_cfa_offset 36
 441              		.cfi_offset 4, -36
 442              		.cfi_offset 5, -32
 443              		.cfi_offset 6, -28
 444              		.cfi_offset 7, -24
 445              		.cfi_offset 8, -20
 446              		.cfi_offset 9, -16
 447              		.cfi_offset 10, -12
 448              		.cfi_offset 11, -8
 449              		.cfi_offset 14, -4
 450 0004 6C4F     		ldr	r7, .L63
 451 0006 DFF8F881 		ldr	r8, .L63+72
 452 000a 3B68     		ldr	r3, [r7]
 453 000c B8F80020 		ldrh	r2, [r8]
 454 0010 83B0     		sub	sp, sp, #12
 455              		.cfi_def_cfa_offset 48
 456              		.loc 1 114 0
ARM GAS  C:\Users\41786\AppData\Local\Temp\ccAsm2AM.s 			page 9


 457 0012 0193     		str	r3, [sp, #4]
 458              	.LVL38:
 459              	.LBB63:
 460              		.loc 1 128 0
 461 0014 0029     		cmp	r1, #0
 462 0016 00F0C280 		beq	.L47
 463 001a DFF8B091 		ldr	r9, .L63+20
 464 001e DFF8B4E1 		ldr	lr, .L63+28
 465 0022 DFF8BCC1 		ldr	ip, .L63+40
 466 0026 654E     		ldr	r6, .L63+4
 467              		.loc 1 137 0
 468 0028 DFED657A 		vldr.32	s15, .L63+8
 469              		.loc 1 128 0
 470 002c 0025     		movs	r5, #0
 471 002e 04E0     		b	.L49
 472              	.LVL39:
 473              	.L59:
 474              		.loc 1 128 0 is_stmt 0 discriminator 2
 475 0030 0435     		adds	r5, r5, #4
 476              	.LVL40:
 477 0032 ADB2     		uxth	r5, r5
 478              	.LVL41:
 479 0034 A942     		cmp	r1, r5
 480 0036 40F2BB80 		bls	.L58
 481              	.LVL42:
 482              	.L49:
 483              		.loc 1 130 0 is_stmt 1
 484 003a 30F91530 		ldrsh	r3, [r0, r5, lsl #1]
 485 003e 07EE103A 		vmov	s14, r3	@ int
 486 0042 9400     		lsls	r4, r2, #2
 487 0044 B8EEC77A 		vcvt.f32.s32	s14, s14
 488 0048 09EB040A 		add	r10, r9, r4
 489              		.loc 1 131 0
 490 004c 00EB4503 		add	r3, r0, r5, lsl #1
 491              		.loc 1 130 0
 492 0050 8AED007A 		vstr.32	s14, [r10]
 493              		.loc 1 131 0
 494 0054 B3F902A0 		ldrsh	r10, [r3, #2]
 495 0058 07EE10AA 		vmov	s14, r10	@ int
 496 005c B8EEC77A 		vcvt.f32.s32	s14, s14
 497 0060 0EEB040A 		add	r10, lr, r4
 498 0064 8AED007A 		vstr.32	s14, [r10]
 499              		.loc 1 132 0
 500 0068 B3F904A0 		ldrsh	r10, [r3, #4]
 501 006c 07EE10AA 		vmov	s14, r10	@ int
 502 0070 B8EEC77A 		vcvt.f32.s32	s14, s14
 503 0074 0CEB040A 		add	r10, ip, r4
 504 0078 8AED007A 		vstr.32	s14, [r10]
 505              		.loc 1 133 0
 506 007c B3F90630 		ldrsh	r3, [r3, #6]
 507 0080 07EE103A 		vmov	s14, r3	@ int
 508              		.loc 1 137 0
 509 0084 531C     		adds	r3, r2, #1
 510 0086 9BB2     		uxth	r3, r3
 511              		.loc 1 133 0
 512 0088 B8EEC77A 		vcvt.f32.s32	s14, s14
 513              		.loc 1 142 0
ARM GAS  C:\Users\41786\AppData\Local\Temp\ccAsm2AM.s 			page 10


 514 008c 0232     		adds	r2, r2, #2
 515              		.loc 1 137 0
 516 008e 9B00     		lsls	r3, r3, #2
 517              		.loc 1 133 0
 518 0090 3444     		add	r4, r4, r6
 519              		.loc 1 142 0
 520 0092 92B2     		uxth	r2, r2
 521              		.loc 1 133 0
 522 0094 84ED007A 		vstr.32	s14, [r4]
 523              		.loc 1 137 0
 524 0098 09EB030B 		add	fp, r9, r3
 525              		.loc 1 138 0
 526 009c 0EEB030A 		add	r10, lr, r3
 527              		.loc 1 139 0
 528 00a0 0CEB0304 		add	r4, ip, r3
 529              		.loc 1 146 0
 530 00a4 B2F5006F 		cmp	r2, #2048
 531              		.loc 1 140 0
 532 00a8 3344     		add	r3, r3, r6
 533              		.loc 1 137 0
 534 00aa CBED007A 		vstr.32	s15, [fp]
 535              		.loc 1 138 0
 536 00ae CAED007A 		vstr.32	s15, [r10]
 537              		.loc 1 139 0
 538 00b2 C4ED007A 		vstr.32	s15, [r4]
 539              		.loc 1 140 0
 540 00b6 C3ED007A 		vstr.32	s15, [r3]
 541              		.loc 1 146 0
 542 00ba B9D3     		bcc	.L59
 543              	.LVL43:
 544              	.L48:
 545              	.LBE63:
 546              		.loc 1 152 0
 547 00bc 414C     		ldr	r4, .L63+12
 548 00be 2378     		ldrb	r3, [r4]	@ zero_extendqisi2
 549 00c0 0133     		adds	r3, r3, #1
 550 00c2 DBB2     		uxtb	r3, r3
 551              		.loc 1 153 0
 552 00c4 0025     		movs	r5, #0
 553              		.loc 1 154 0
 554 00c6 092B     		cmp	r3, #9
 555              		.loc 1 152 0
 556 00c8 2370     		strb	r3, [r4]
 557              		.loc 1 153 0
 558 00ca A8F80050 		strh	r5, [r8]	@ movhi
 559              		.loc 1 154 0
 560 00ce 06D8     		bhi	.L60
 561              	.LVL44:
 562              	.L46:
 563              		.loc 1 188 0
 564 00d0 019A     		ldr	r2, [sp, #4]
 565 00d2 3B68     		ldr	r3, [r7]
 566 00d4 9A42     		cmp	r2, r3
 567 00d6 69D1     		bne	.L61
 568 00d8 03B0     		add	sp, sp, #12
 569              		.cfi_remember_state
 570              		.cfi_def_cfa_offset 36
ARM GAS  C:\Users\41786\AppData\Local\Temp\ccAsm2AM.s 			page 11


 571              		@ sp needed
 572 00da BDE8F08F 		pop	{r4, r5, r6, r7, r8, r9, r10, fp, pc}
 573              	.LVL45:
 574              	.L60:
 575              		.cfi_restore_state
 576              		.loc 1 163 0
 577 00de 4FF40062 		mov	r2, #2048
 578 00e2 3949     		ldr	r1, .L63+16
 579              	.LVL46:
 580 00e4 3948     		ldr	r0, .L63+20
 581              	.LVL47:
 582              		.loc 1 155 0
 583 00e6 2570     		strb	r5, [r4]
 584              		.loc 1 163 0
 585 00e8 FFF7FEFF 		bl	arm_copy_f32
 586              	.LVL48:
 587              		.loc 1 164 0
 588 00ec 4FF40062 		mov	r2, #2048
 589 00f0 3749     		ldr	r1, .L63+24
 590 00f2 3848     		ldr	r0, .L63+28
 591 00f4 FFF7FEFF 		bl	arm_copy_f32
 592              	.LVL49:
 593              		.loc 1 165 0
 594 00f8 4FF40062 		mov	r2, #2048
 595 00fc 3649     		ldr	r1, .L63+32
 596 00fe 2F48     		ldr	r0, .L63+4
 597 0100 FFF7FEFF 		bl	arm_copy_f32
 598              	.LVL50:
 599              		.loc 1 166 0
 600 0104 4FF40062 		mov	r2, #2048
 601 0108 3449     		ldr	r1, .L63+36
 602 010a 3548     		ldr	r0, .L63+40
 603 010c FFF7FEFF 		bl	arm_copy_f32
 604              	.LVL51:
 605              	.LBB64:
 606              	.LBB65:
 607 0110 2D48     		ldr	r0, .L63+16
 608 0112 FFF7FEFF 		bl	doFFT_optimized.part.0
 609              	.LVL52:
 610              	.LBE65:
 611              	.LBE64:
 612              	.LBB66:
 613              	.LBB67:
 614 0116 2E48     		ldr	r0, .L63+24
 615 0118 FFF7FEFF 		bl	doFFT_optimized.part.0
 616              	.LVL53:
 617              	.LBE67:
 618              	.LBE66:
 619              	.LBB68:
 620              	.LBB69:
 621 011c 2E48     		ldr	r0, .L63+32
 622 011e FFF7FEFF 		bl	doFFT_optimized.part.0
 623              	.LVL54:
 624              	.LBE69:
 625              	.LBE68:
 626              	.LBB70:
 627              	.LBB71:
ARM GAS  C:\Users\41786\AppData\Local\Temp\ccAsm2AM.s 			page 12


 628 0122 2E48     		ldr	r0, .L63+36
 629 0124 FFF7FEFF 		bl	doFFT_optimized.part.0
 630              	.LVL55:
 631              	.LBE71:
 632              	.LBE70:
 633              		.loc 1 180 0
 634 0128 4FF48062 		mov	r2, #1024
 635 012c 2D49     		ldr	r1, .L63+44
 636 012e 2648     		ldr	r0, .L63+16
 637 0130 FFF7FEFF 		bl	arm_cmplx_mag_f32
 638              	.LVL56:
 639              		.loc 1 181 0
 640 0134 4FF48062 		mov	r2, #1024
 641 0138 2B49     		ldr	r1, .L63+48
 642 013a 2548     		ldr	r0, .L63+24
 643 013c FFF7FEFF 		bl	arm_cmplx_mag_f32
 644              	.LVL57:
 645              		.loc 1 182 0
 646 0140 4FF48062 		mov	r2, #1024
 647 0144 2949     		ldr	r1, .L63+52
 648 0146 2448     		ldr	r0, .L63+32
 649 0148 FFF7FEFF 		bl	arm_cmplx_mag_f32
 650              	.LVL58:
 651              		.loc 1 183 0
 652 014c 4FF48062 		mov	r2, #1024
 653 0150 2749     		ldr	r1, .L63+56
 654 0152 2248     		ldr	r0, .L63+36
 655 0154 FFF7FEFF 		bl	arm_cmplx_mag_f32
 656              	.LVL59:
 657              	.LBB72:
 658              	.LBB73:
 659              	.LBB74:
 660              	.LBB75:
 661              	.LBB76:
 662              	.LBB77:
 663              	.LBB78:
 664              		.file 3 "../../lib/e-puck2_main-processor/ChibiOS//os/ext/CMSIS/include/core_cmFunc.h"
 665              		.loc 3 546 0
 666 0158 2023     		movs	r3, #32
 667              		.syntax unified
 668              	@ 546 "../../lib/e-puck2_main-processor/ChibiOS//os/ext/CMSIS/include/core_cmFunc.h" 1
 669 015a 83F31188 		MSR basepri, r3
 670              	@ 0 "" 2
 671              	.LVL60:
 672              		.thumb
 673              		.syntax unified
 674              	.LBE78:
 675              	.LBE77:
 676              	.LBE76:
 677              		.file 4 "../../lib/e-puck2_main-processor/ChibiOS//os/rt/include/chsys.h"
 678              		.loc 4 349 0
 679 015e FFF7FEFF 		bl	_stats_start_measure_crit_thd
 680              	.LVL61:
 681              		.loc 4 350 0
 682 0162 FFF7FEFF 		bl	_dbg_check_lock
 683              	.LVL62:
 684              	.LBE75:
ARM GAS  C:\Users\41786\AppData\Local\Temp\ccAsm2AM.s 			page 13


 685              	.LBE74:
 686              	.LBB79:
 687              	.LBB80:
 688              		.file 5 "../../lib/e-puck2_main-processor/ChibiOS//os/rt/include/chbsem.h"
 689              		.loc 5 268 0
 690 0166 FFF7FEFF 		bl	chDbgCheckClassI
 691              	.LVL63:
 692              		.loc 5 270 0
 693 016a 2248     		ldr	r0, .L63+60
 694 016c 8368     		ldr	r3, [r0, #8]
 695 016e AB42     		cmp	r3, r5
 696 0170 19DD     		ble	.L62
 697              	.L52:
 698              	.LVL64:
 699              	.LBE80:
 700              	.LBE79:
 701              		.loc 5 286 0
 702 0172 FFF7FEFF 		bl	chSchRescheduleS
 703              	.LVL65:
 704              	.LBB82:
 705              	.LBB83:
 706              		.loc 4 360 0
 707 0176 FFF7FEFF 		bl	_dbg_check_unlock
 708              	.LVL66:
 709              		.loc 4 361 0
 710 017a FFF7FEFF 		bl	_stats_stop_measure_crit_thd
 711              	.LVL67:
 712              		.loc 4 367 0
 713 017e 1E4B     		ldr	r3, .L63+64
 714 0180 1A68     		ldr	r2, [r3]
 715 0182 9A42     		cmp	r2, r3
 716 0184 07D0     		beq	.L53
 717 0186 9969     		ldr	r1, [r3, #24]
 718 0188 9368     		ldr	r3, [r2, #8]
 719 018a 8A68     		ldr	r2, [r1, #8]
 720 018c 9A42     		cmp	r2, r3
 721 018e 02D2     		bcs	.L53
 722 0190 1A48     		ldr	r0, .L63+68
 723 0192 FFF7FEFF 		bl	chSysHalt
 724              	.LVL68:
 725              	.L53:
 726              	.LBB84:
 727              	.LBB85:
 728              	.LBB86:
 729              		.loc 3 546 0
 730 0196 0023     		movs	r3, #0
 731              		.syntax unified
 732              	@ 546 "../../lib/e-puck2_main-processor/ChibiOS//os/ext/CMSIS/include/core_cmFunc.h" 1
 733 0198 83F31188 		MSR basepri, r3
 734              	@ 0 "" 2
 735              	.LVL69:
 736              		.thumb
 737              		.syntax unified
 738 019c 98E7     		b	.L46
 739              	.LVL70:
 740              	.L47:
 741              	.LBE86:
ARM GAS  C:\Users\41786\AppData\Local\Temp\ccAsm2AM.s 			page 14


 742              	.LBE85:
 743              	.LBE84:
 744              	.LBE83:
 745              	.LBE82:
 746              	.LBE73:
 747              	.LBE72:
 748              		.loc 1 151 0
 749 019e B2F5006F 		cmp	r2, #2048
 750 01a2 8BD2     		bcs	.L48
 751 01a4 94E7     		b	.L46
 752              	.LVL71:
 753              	.L62:
 754              	.LBB89:
 755              	.LBB88:
 756              	.LBB87:
 757              	.LBB81:
 758              		.loc 5 271 0
 759 01a6 FFF7FEFF 		bl	chSemSignalI
 760              	.LVL72:
 761 01aa E2E7     		b	.L52
 762              	.LVL73:
 763              	.L61:
 764              	.LBE81:
 765              	.LBE87:
 766              	.LBE88:
 767              	.LBE89:
 768              		.loc 1 188 0
 769 01ac FFF7FEFF 		bl	__stack_chk_fail
 770              	.LVL74:
 771              	.L58:
 772 01b0 A8F80020 		strh	r2, [r8]	@ movhi
 773 01b4 8CE7     		b	.L46
 774              	.L64:
 775 01b6 00BF     		.align	2
 776              	.L63:
 777 01b8 00000000 		.word	__stack_chk_guard
 778 01bc 00000000 		.word	micFront_cmplx_input
 779 01c0 00000000 		.word	0
 780 01c4 00000000 		.word	.LANCHOR2
 781 01c8 00000000 		.word	micRight_cmplx_input_buf
 782 01cc 00000000 		.word	micRight_cmplx_input
 783 01d0 00000000 		.word	micLeft_cmplx_input_buf
 784 01d4 00000000 		.word	micLeft_cmplx_input
 785 01d8 00000000 		.word	micFront_cmplx_input_buf
 786 01dc 00000000 		.word	micBack_cmplx_input_buf
 787 01e0 00000000 		.word	micBack_cmplx_input
 788 01e4 00000000 		.word	micRight_output
 789 01e8 00000000 		.word	micLeft_output
 790 01ec 00000000 		.word	micFront_output
 791 01f0 00000000 		.word	micBack_output
 792 01f4 00000000 		.word	.LANCHOR3
 793 01f8 00000000 		.word	ch
 794 01fc 00000000 		.word	.LANCHOR4
 795 0200 00000000 		.word	.LANCHOR1
 796              		.cfi_endproc
 797              	.LFE292:
 798              		.size	processAudioData, .-processAudioData
ARM GAS  C:\Users\41786\AppData\Local\Temp\ccAsm2AM.s 			page 15


 799              		.section	.text.wait_traitement_data,"ax",%progbits
 800              		.align	1
 801              		.p2align 4,,15
 802              		.global	wait_traitement_data
 803              		.syntax unified
 804              		.thumb
 805              		.thumb_func
 806              		.fpu fpv4-sp-d16
 807              		.type	wait_traitement_data, %function
 808              	wait_traitement_data:
 809              	.LFB293:
 810              		.loc 1 190 0
 811              		.cfi_startproc
 812              		@ args = 0, pretend = 0, frame = 8
 813              		@ frame_needed = 0, uses_anonymous_args = 0
 814 0000 00B5     		push	{lr}
 815              		.cfi_def_cfa_offset 4
 816              		.cfi_offset 14, -4
 817 0002 084B     		ldr	r3, .L70
 818 0004 83B0     		sub	sp, sp, #12
 819              		.cfi_def_cfa_offset 16
 820              		.loc 1 190 0
 821 0006 1A68     		ldr	r2, [r3]
 822 0008 0192     		str	r2, [sp, #4]
 823              	.LVL75:
 824              	.LBB90:
 825              	.LBB91:
 826              		.loc 5 143 0
 827 000a 019A     		ldr	r2, [sp, #4]
 828 000c 1B68     		ldr	r3, [r3]
 829 000e 9A42     		cmp	r2, r3
 830 0010 05D1     		bne	.L69
 831 0012 0548     		ldr	r0, .L70+4
 832              	.LBE91:
 833              	.LBE90:
 834              		.loc 1 192 0
 835 0014 03B0     		add	sp, sp, #12
 836              		.cfi_remember_state
 837              		.cfi_def_cfa_offset 4
 838              		@ sp needed
 839 0016 5DF804EB 		ldr	lr, [sp], #4
 840              		.cfi_restore 14
 841              		.cfi_def_cfa_offset 0
 842              	.LBB93:
 843              	.LBB92:
 844              		.loc 5 143 0
 845 001a FFF7FEBF 		b	chSemWait
 846              	.LVL76:
 847              	.L69:
 848              		.cfi_restore_state
 849 001e FFF7FEFF 		bl	__stack_chk_fail
 850              	.LVL77:
 851              	.L71:
 852 0022 00BF     		.align	2
 853              	.L70:
 854 0024 00000000 		.word	__stack_chk_guard
 855 0028 00000000 		.word	.LANCHOR3
ARM GAS  C:\Users\41786\AppData\Local\Temp\ccAsm2AM.s 			page 16


 856              	.LBE92:
 857              	.LBE93:
 858              		.cfi_endproc
 859              	.LFE293:
 860              		.size	wait_traitement_data, .-wait_traitement_data
 861              		.section	.text.get_audio_buffer_ptr,"ax",%progbits
 862              		.align	1
 863              		.p2align 4,,15
 864              		.global	get_audio_buffer_ptr
 865              		.syntax unified
 866              		.thumb
 867              		.thumb_func
 868              		.fpu fpv4-sp-d16
 869              		.type	get_audio_buffer_ptr, %function
 870              	get_audio_buffer_ptr:
 871              	.LFB294:
 872              		.loc 1 194 0
 873              		.cfi_startproc
 874              		@ args = 0, pretend = 0, frame = 8
 875              		@ frame_needed = 0, uses_anonymous_args = 0
 876              	.LVL78:
 877 0000 00B5     		push	{lr}
 878              		.cfi_def_cfa_offset 4
 879              		.cfi_offset 14, -4
 880 0002 164B     		ldr	r3, .L85
 881 0004 83B0     		sub	sp, sp, #12
 882              		.cfi_def_cfa_offset 16
 883              		.loc 1 194 0
 884 0006 1A68     		ldr	r2, [r3]
 885 0008 0192     		str	r2, [sp, #4]
 886              		.loc 1 195 0
 887 000a 88B1     		cbz	r0, .L75
 888              		.loc 1 198 0
 889 000c 0128     		cmp	r0, #1
 890 000e 17D0     		beq	.L76
 891              		.loc 1 201 0
 892 0010 0228     		cmp	r0, #2
 893 0012 19D0     		beq	.L77
 894              		.loc 1 204 0
 895 0014 0328     		cmp	r0, #3
 896 0016 15D0     		beq	.L78
 897              		.loc 1 207 0
 898 0018 0428     		cmp	r0, #4
 899 001a 17D0     		beq	.L79
 900              		.loc 1 210 0
 901 001c 0528     		cmp	r0, #5
 902 001e 17D0     		beq	.L80
 903              		.loc 1 213 0
 904 0020 0628     		cmp	r0, #6
 905 0022 17D0     		beq	.L81
 906              		.loc 1 220 0
 907 0024 0E4A     		ldr	r2, .L85+4
 908              		.loc 1 216 0
 909 0026 0728     		cmp	r0, #7
 910              		.loc 1 220 0
 911 0028 0CBF     		ite	eq
 912 002a 1046     		moveq	r0, r2
ARM GAS  C:\Users\41786\AppData\Local\Temp\ccAsm2AM.s 			page 17


 913              	.LVL79:
 914 002c 0020     		movne	r0, #0
 915 002e 00E0     		b	.L72
 916              	.LVL80:
 917              	.L75:
 918              		.loc 1 196 0
 919 0030 0C48     		ldr	r0, .L85+8
 920              	.LVL81:
 921              	.L72:
 922              		.loc 1 222 0
 923 0032 019A     		ldr	r2, [sp, #4]
 924 0034 1B68     		ldr	r3, [r3]
 925 0036 9A42     		cmp	r2, r3
 926 0038 0ED1     		bne	.L84
 927 003a 03B0     		add	sp, sp, #12
 928              		.cfi_remember_state
 929              		.cfi_def_cfa_offset 4
 930              		@ sp needed
 931 003c 5DF804FB 		ldr	pc, [sp], #4
 932              	.LVL82:
 933              	.L76:
 934              		.cfi_restore_state
 935              		.loc 1 199 0
 936 0040 0948     		ldr	r0, .L85+12
 937              	.LVL83:
 938 0042 F6E7     		b	.L72
 939              	.LVL84:
 940              	.L78:
 941              		.loc 1 205 0
 942 0044 0948     		ldr	r0, .L85+16
 943              	.LVL85:
 944 0046 F4E7     		b	.L72
 945              	.LVL86:
 946              	.L77:
 947              		.loc 1 202 0
 948 0048 0948     		ldr	r0, .L85+20
 949              	.LVL87:
 950 004a F2E7     		b	.L72
 951              	.LVL88:
 952              	.L79:
 953              		.loc 1 208 0
 954 004c 0948     		ldr	r0, .L85+24
 955              	.LVL89:
 956 004e F0E7     		b	.L72
 957              	.LVL90:
 958              	.L80:
 959              		.loc 1 211 0
 960 0050 0948     		ldr	r0, .L85+28
 961              	.LVL91:
 962 0052 EEE7     		b	.L72
 963              	.LVL92:
 964              	.L81:
 965              		.loc 1 214 0
 966 0054 0948     		ldr	r0, .L85+32
 967              	.LVL93:
 968 0056 ECE7     		b	.L72
 969              	.L84:
ARM GAS  C:\Users\41786\AppData\Local\Temp\ccAsm2AM.s 			page 18


 970              		.loc 1 222 0
 971 0058 FFF7FEFF 		bl	__stack_chk_fail
 972              	.LVL94:
 973              	.L86:
 974              		.align	2
 975              	.L85:
 976 005c 00000000 		.word	__stack_chk_guard
 977 0060 00000000 		.word	micBack_output
 978 0064 00000000 		.word	micLeft_cmplx_input
 979 0068 00000000 		.word	micRight_cmplx_input
 980 006c 00000000 		.word	micBack_cmplx_input
 981 0070 00000000 		.word	micFront_cmplx_input
 982 0074 00000000 		.word	micLeft_output
 983 0078 00000000 		.word	micRight_output
 984 007c 00000000 		.word	micFront_output
 985              		.cfi_endproc
 986              	.LFE294:
 987              		.size	get_audio_buffer_ptr, .-get_audio_buffer_ptr
 988              		.global	arm_cfft_sR_f32_len4096
 989              		.global	arm_cfft_sR_f32_len2048
 990              		.global	arm_cfft_sR_f32_len1024
 991              		.global	arm_cfft_sR_f32_len512
 992              		.global	arm_cfft_sR_f32_len256
 993              		.global	arm_cfft_sR_f32_len128
 994              		.global	arm_cfft_sR_f32_len64
 995              		.global	arm_cfft_sR_f32_len32
 996              		.global	arm_cfft_sR_f32_len16
 997              		.section	.bss.micBack_cmplx_input,"aw",%nobits
 998              		.align	2
 999              		.type	micBack_cmplx_input, %object
 1000              		.size	micBack_cmplx_input, 8192
 1001              	micBack_cmplx_input:
 1002 0000 00000000 		.space	8192
 1002      00000000 
 1002      00000000 
 1002      00000000 
 1002      00000000 
 1003              		.section	.bss.micBack_cmplx_input_buf,"aw",%nobits
 1004              		.align	2
 1005              		.type	micBack_cmplx_input_buf, %object
 1006              		.size	micBack_cmplx_input_buf, 8192
 1007              	micBack_cmplx_input_buf:
 1008 0000 00000000 		.space	8192
 1008      00000000 
 1008      00000000 
 1008      00000000 
 1008      00000000 
 1009              		.section	.bss.micBack_output,"aw",%nobits
 1010              		.align	2
 1011              		.type	micBack_output, %object
 1012              		.size	micBack_output, 4096
 1013              	micBack_output:
 1014 0000 00000000 		.space	4096
 1014      00000000 
 1014      00000000 
 1014      00000000 
 1014      00000000 
ARM GAS  C:\Users\41786\AppData\Local\Temp\ccAsm2AM.s 			page 19


 1015              		.section	.bss.micFront_cmplx_input,"aw",%nobits
 1016              		.align	2
 1017              		.type	micFront_cmplx_input, %object
 1018              		.size	micFront_cmplx_input, 8192
 1019              	micFront_cmplx_input:
 1020 0000 00000000 		.space	8192
 1020      00000000 
 1020      00000000 
 1020      00000000 
 1020      00000000 
 1021              		.section	.bss.micFront_cmplx_input_buf,"aw",%nobits
 1022              		.align	2
 1023              		.type	micFront_cmplx_input_buf, %object
 1024              		.size	micFront_cmplx_input_buf, 8192
 1025              	micFront_cmplx_input_buf:
 1026 0000 00000000 		.space	8192
 1026      00000000 
 1026      00000000 
 1026      00000000 
 1026      00000000 
 1027              		.section	.bss.micFront_output,"aw",%nobits
 1028              		.align	2
 1029              		.type	micFront_output, %object
 1030              		.size	micFront_output, 4096
 1031              	micFront_output:
 1032 0000 00000000 		.space	4096
 1032      00000000 
 1032      00000000 
 1032      00000000 
 1032      00000000 
 1033              		.section	.bss.micLeft_cmplx_input,"aw",%nobits
 1034              		.align	2
 1035              		.type	micLeft_cmplx_input, %object
 1036              		.size	micLeft_cmplx_input, 8192
 1037              	micLeft_cmplx_input:
 1038 0000 00000000 		.space	8192
 1038      00000000 
 1038      00000000 
 1038      00000000 
 1038      00000000 
 1039              		.section	.bss.micLeft_cmplx_input_buf,"aw",%nobits
 1040              		.align	2
 1041              		.type	micLeft_cmplx_input_buf, %object
 1042              		.size	micLeft_cmplx_input_buf, 8192
 1043              	micLeft_cmplx_input_buf:
 1044 0000 00000000 		.space	8192
 1044      00000000 
 1044      00000000 
 1044      00000000 
 1044      00000000 
 1045              		.section	.bss.micLeft_output,"aw",%nobits
 1046              		.align	2
 1047              		.type	micLeft_output, %object
 1048              		.size	micLeft_output, 4096
 1049              	micLeft_output:
 1050 0000 00000000 		.space	4096
 1050      00000000 
ARM GAS  C:\Users\41786\AppData\Local\Temp\ccAsm2AM.s 			page 20


 1050      00000000 
 1050      00000000 
 1050      00000000 
 1051              		.section	.bss.micRight_cmplx_input,"aw",%nobits
 1052              		.align	2
 1053              		.type	micRight_cmplx_input, %object
 1054              		.size	micRight_cmplx_input, 8192
 1055              	micRight_cmplx_input:
 1056 0000 00000000 		.space	8192
 1056      00000000 
 1056      00000000 
 1056      00000000 
 1056      00000000 
 1057              		.section	.bss.micRight_cmplx_input_buf,"aw",%nobits
 1058              		.align	2
 1059              		.type	micRight_cmplx_input_buf, %object
 1060              		.size	micRight_cmplx_input_buf, 8192
 1061              	micRight_cmplx_input_buf:
 1062 0000 00000000 		.space	8192
 1062      00000000 
 1062      00000000 
 1062      00000000 
 1062      00000000 
 1063              		.section	.bss.micRight_output,"aw",%nobits
 1064              		.align	2
 1065              		.type	micRight_output, %object
 1066              		.size	micRight_output, 4096
 1067              	micRight_output:
 1068 0000 00000000 		.space	4096
 1068      00000000 
 1068      00000000 
 1068      00000000 
 1068      00000000 
 1069              		.section	.bss.nb_samples.14216,"aw",%nobits
 1070              		.align	1
 1071              		.set	.LANCHOR1,. + 0
 1072              		.type	nb_samples.14216, %object
 1073              		.size	nb_samples.14216, 2
 1074              	nb_samples.14216:
 1075 0000 0000     		.space	2
 1076              		.section	.bss.samples_count,"aw",%nobits
 1077              		.set	.LANCHOR2,. + 0
 1078              		.type	samples_count, %object
 1079              		.size	samples_count, 1
 1080              	samples_count:
 1081 0000 00       		.space	1
 1082              		.section	.data.traitement,"aw",%progbits
 1083              		.align	2
 1084              		.set	.LANCHOR3,. + 0
 1085              		.type	traitement, %object
 1086              		.size	traitement, 12
 1087              	traitement:
 1088 0000 00000000 		.word	traitement
 1089 0004 00000000 		.word	traitement
 1090 0008 00000000 		.word	0
 1091              		.section	.rodata.__func__.7153,"a",%progbits
 1092              		.align	2
ARM GAS  C:\Users\41786\AppData\Local\Temp\ccAsm2AM.s 			page 21


 1093              		.set	.LANCHOR4,. + 0
 1094              		.type	__func__.7153, %object
 1095              		.size	__func__.7153, 12
 1096              	__func__.7153:
 1097 0000 63685379 		.ascii	"chSysUnlock\000"
 1097      73556E6C 
 1097      6F636B00 
 1098              		.section	.rodata.arm_cfft_sR_f32_len1024,"a",%progbits
 1099              		.align	2
 1100              		.set	.LANCHOR0,. + 0
 1101              		.type	arm_cfft_sR_f32_len1024, %object
 1102              		.size	arm_cfft_sR_f32_len1024, 16
 1103              	arm_cfft_sR_f32_len1024:
 1104 0000 0004     		.short	1024
 1105 0002 0000     		.space	2
 1106 0004 00000000 		.word	twiddleCoef_1024
 1107 0008 00000000 		.word	armBitRevIndexTable1024
 1108 000c 0807     		.short	1800
 1109 000e 0000     		.space	2
 1110              		.section	.rodata.arm_cfft_sR_f32_len128,"a",%progbits
 1111              		.align	2
 1112              		.type	arm_cfft_sR_f32_len128, %object
 1113              		.size	arm_cfft_sR_f32_len128, 16
 1114              	arm_cfft_sR_f32_len128:
 1115 0000 8000     		.short	128
 1116 0002 0000     		.space	2
 1117 0004 00000000 		.word	twiddleCoef_128
 1118 0008 00000000 		.word	armBitRevIndexTable128
 1119 000c D000     		.short	208
 1120 000e 0000     		.space	2
 1121              		.section	.rodata.arm_cfft_sR_f32_len16,"a",%progbits
 1122              		.align	2
 1123              		.type	arm_cfft_sR_f32_len16, %object
 1124              		.size	arm_cfft_sR_f32_len16, 16
 1125              	arm_cfft_sR_f32_len16:
 1126 0000 1000     		.short	16
 1127 0002 0000     		.space	2
 1128 0004 00000000 		.word	twiddleCoef_16
 1129 0008 00000000 		.word	armBitRevIndexTable16
 1130 000c 1400     		.short	20
 1131 000e 0000     		.space	2
 1132              		.section	.rodata.arm_cfft_sR_f32_len2048,"a",%progbits
 1133              		.align	2
 1134              		.type	arm_cfft_sR_f32_len2048, %object
 1135              		.size	arm_cfft_sR_f32_len2048, 16
 1136              	arm_cfft_sR_f32_len2048:
 1137 0000 0008     		.short	2048
 1138 0002 0000     		.space	2
 1139 0004 00000000 		.word	twiddleCoef_2048
 1140 0008 00000000 		.word	armBitRevIndexTable2048
 1141 000c E00E     		.short	3808
 1142 000e 0000     		.space	2
 1143              		.section	.rodata.arm_cfft_sR_f32_len256,"a",%progbits
 1144              		.align	2
 1145              		.type	arm_cfft_sR_f32_len256, %object
 1146              		.size	arm_cfft_sR_f32_len256, 16
 1147              	arm_cfft_sR_f32_len256:
ARM GAS  C:\Users\41786\AppData\Local\Temp\ccAsm2AM.s 			page 22


 1148 0000 0001     		.short	256
 1149 0002 0000     		.space	2
 1150 0004 00000000 		.word	twiddleCoef_256
 1151 0008 00000000 		.word	armBitRevIndexTable256
 1152 000c B801     		.short	440
 1153 000e 0000     		.space	2
 1154              		.section	.rodata.arm_cfft_sR_f32_len32,"a",%progbits
 1155              		.align	2
 1156              		.type	arm_cfft_sR_f32_len32, %object
 1157              		.size	arm_cfft_sR_f32_len32, 16
 1158              	arm_cfft_sR_f32_len32:
 1159 0000 2000     		.short	32
 1160 0002 0000     		.space	2
 1161 0004 00000000 		.word	twiddleCoef_32
 1162 0008 00000000 		.word	armBitRevIndexTable32
 1163 000c 3000     		.short	48
 1164 000e 0000     		.space	2
 1165              		.section	.rodata.arm_cfft_sR_f32_len4096,"a",%progbits
 1166              		.align	2
 1167              		.type	arm_cfft_sR_f32_len4096, %object
 1168              		.size	arm_cfft_sR_f32_len4096, 16
 1169              	arm_cfft_sR_f32_len4096:
 1170 0000 0010     		.short	4096
 1171 0002 0000     		.space	2
 1172 0004 00000000 		.word	twiddleCoef_4096
 1173 0008 00000000 		.word	armBitRevIndexTable4096
 1174 000c C00F     		.short	4032
 1175 000e 0000     		.space	2
 1176              		.section	.rodata.arm_cfft_sR_f32_len512,"a",%progbits
 1177              		.align	2
 1178              		.type	arm_cfft_sR_f32_len512, %object
 1179              		.size	arm_cfft_sR_f32_len512, 16
 1180              	arm_cfft_sR_f32_len512:
 1181 0000 0002     		.short	512
 1182 0002 0000     		.space	2
 1183 0004 00000000 		.word	twiddleCoef_512
 1184 0008 00000000 		.word	armBitRevIndexTable512
 1185 000c C001     		.short	448
 1186 000e 0000     		.space	2
 1187              		.section	.rodata.arm_cfft_sR_f32_len64,"a",%progbits
 1188              		.align	2
 1189              		.type	arm_cfft_sR_f32_len64, %object
 1190              		.size	arm_cfft_sR_f32_len64, 16
 1191              	arm_cfft_sR_f32_len64:
 1192 0000 4000     		.short	64
 1193 0002 0000     		.space	2
 1194 0004 00000000 		.word	twiddleCoef_64
 1195 0008 00000000 		.word	armBitRevIndexTable64
 1196 000c 3800     		.short	56
 1197 000e 0000     		.space	2
 1198              		.section	.rodata.chprintf.constprop.1.str1.4,"aMS",%progbits,1
 1199              		.align	2
 1200              	.LC2:
 1201 0000 616D7020 		.ascii	"amp droite = %f    amp gauche = %f  amp front = %f "
 1201      64726F69 
 1201      7465203D 
 1201      20256620 
ARM GAS  C:\Users\41786\AppData\Local\Temp\ccAsm2AM.s 			page 23


 1201      20202061 
 1202 0033 616D7020 		.ascii	"amp back = %f \012\000"
 1202      6261636B 
 1202      203D2025 
 1202      66200A00 
 1203              		.text
 1204              	.Letext0:
 1205              		.file 6 "c:\\users\\41786\\desktop\\epfl\\microinfo\\eclipse_e-puck2\\tools\\gcc-arm-none-eabi-7-2
 1206              		.file 7 "c:\\users\\41786\\desktop\\epfl\\microinfo\\eclipse_e-puck2\\tools\\gcc-arm-none-eabi-7-2
 1207              		.file 8 "c:\\users\\41786\\desktop\\epfl\\microinfo\\eclipse_e-puck2\\tools\\gcc-arm-none-eabi-7-2
 1208              		.file 9 "../../lib/e-puck2_main-processor/ChibiOS//os/rt/ports/ARMCMx/compilers/GCC/chtypes.h"
 1209              		.file 10 "../../lib/e-puck2_main-processor/ChibiOS//os/rt/include/chsystypes.h"
 1210              		.file 11 "../../lib/e-puck2_main-processor/ChibiOS//os/rt/include/chschd.h"
 1211              		.file 12 "../../lib/e-puck2_main-processor/ChibiOS//os/ext/CMSIS/include/core_cm4.h"
 1212              		.file 13 "../../lib/e-puck2_main-processor/ChibiOS//os/ext/CMSIS/ST/system_stm32f4xx.h"
 1213              		.file 14 "../../lib/e-puck2_main-processor/ChibiOS//os/ext/CMSIS/ST/stm32f407xx.h"
 1214              		.file 15 "../../lib/e-puck2_main-processor/ChibiOS//os/rt/ports/ARMCMx/chcore.h"
 1215              		.file 16 "../../lib/e-puck2_main-processor/ChibiOS//os/rt/ports/ARMCMx/chcore_v7m.h"
 1216              		.file 17 "../../lib/e-puck2_main-processor/ChibiOS//os/rt/include/chdebug.h"
 1217              		.file 18 "../../lib/e-puck2_main-processor/ChibiOS//os/rt/include/chtm.h"
 1218              		.file 19 "../../lib/e-puck2_main-processor/ChibiOS//os/rt/include/chstats.h"
 1219              		.file 20 "../../lib/e-puck2_main-processor/ChibiOS//os/rt/include/chsem.h"
 1220              		.file 21 "../../lib/e-puck2_main-processor/ChibiOS//os/rt/include/chmtx.h"
 1221              		.file 22 "../../lib/e-puck2_main-processor/ChibiOS//os/rt/include/chregistry.h"
 1222              		.file 23 "../../lib/e-puck2_main-processor/ChibiOS//os/rt/include/chevents.h"
 1223              		.file 24 "../../lib/e-puck2_main-processor/ChibiOS//os/rt/include/chqueues.h"
 1224              		.file 25 "../../lib/e-puck2_main-processor/ChibiOS//os/rt/include/chstreams.h"
 1225              		.file 26 "../../lib/e-puck2_main-processor/ChibiOS//os/hal/ports/STM32/STM32F4xx/stm32_dma.h"
 1226              		.file 27 "../../lib/e-puck2_main-processor/ChibiOS//os/hal/include/hal_ioblock.h"
 1227              		.file 28 "../../lib/e-puck2_main-processor/ChibiOS//os/hal/ports/STM32/LLD/GPIOv2/pal_lld.h"
 1228              		.file 29 "../../lib/e-puck2_main-processor/ChibiOS//os/hal/include/adc.h"
 1229              		.file 30 "../../lib/e-puck2_main-processor/ChibiOS//os/hal/ports/STM32/STM32F4xx/adc_lld.h"
 1230              		.file 31 "../../lib/e-puck2_main-processor/ChibiOS//os/hal/include/can.h"
 1231              		.file 32 "../../lib/e-puck2_main-processor/ChibiOS//os/hal/ports/STM32/LLD/can_lld.h"
 1232              		.file 33 "../../lib/e-puck2_main-processor/ChibiOS//os/hal/include/dac.h"
 1233              		.file 34 "../../lib/e-puck2_main-processor/ChibiOS//os/hal/ports/STM32/LLD/DACv1/dac_lld.h"
 1234              		.file 35 "../../lib/e-puck2_main-processor/ChibiOS//os/hal/include/ext.h"
 1235              		.file 36 "../../lib/e-puck2_main-processor/ChibiOS//os/hal/ports/STM32/LLD/ext_lld.h"
 1236              		.file 37 "../../lib/e-puck2_main-processor/ChibiOS//os/hal/include/gpt.h"
 1237              		.file 38 "../../lib/e-puck2_main-processor/ChibiOS//os/hal/ports/STM32/LLD/TIMv1/gpt_lld.h"
 1238              		.file 39 "../../lib/e-puck2_main-processor/ChibiOS//os/hal/ports/STM32/LLD/TIMv1/stm32_tim.h"
 1239              		.file 40 "../../lib/e-puck2_main-processor/ChibiOS//os/hal/include/i2c.h"
 1240              		.file 41 "../../lib/e-puck2_main-processor/ChibiOS//os/hal/ports/STM32/LLD/I2Cv1/i2c_lld.h"
 1241              		.file 42 "../../lib/e-puck2_main-processor/ChibiOS//os/hal/include/i2s.h"
 1242              		.file 43 "../../lib/e-puck2_main-processor/ChibiOS//os/hal/ports/STM32/LLD/SPIv1/i2s_lld.h"
 1243              		.file 44 "../../lib/e-puck2_main-processor/ChibiOS//os/hal/include/pwm.h"
 1244              		.file 45 "../../lib/e-puck2_main-processor/ChibiOS//os/hal/ports/STM32/LLD/TIMv1/pwm_lld.h"
 1245              		.file 46 "../../lib/e-puck2_main-processor/ChibiOS//os/hal/include/serial.h"
 1246              		.file 47 "../../lib/e-puck2_main-processor/ChibiOS//os/hal/ports/STM32/LLD/USARTv1/serial_lld.h"
 1247              		.file 48 "../../lib/e-puck2_main-processor/ChibiOS//os/hal/include/sdc.h"
 1248              		.file 49 "../../lib/e-puck2_main-processor/ChibiOS//os/hal/ports/STM32/LLD/sdc_lld.h"
 1249              		.file 50 "../../lib/e-puck2_main-processor/ChibiOS//os/hal/include/spi.h"
 1250              		.file 51 "../../lib/e-puck2_main-processor/ChibiOS//os/hal/ports/STM32/LLD/SPIv1/spi_lld.h"
 1251              		.file 52 "../../lib/e-puck2_main-processor/ChibiOS//os/hal/include/usb.h"
 1252              		.file 53 "../../lib/e-puck2_main-processor/ChibiOS//os/hal/ports/STM32/LLD/OTGv1/usb_lld.h"
 1253              		.file 54 "../../lib/e-puck2_main-processor/ChibiOS//os/hal/ports/STM32/LLD/OTGv1/stm32_otg.h"
 1254              		.file 55 "../../lib/e-puck2_main-processor/ChibiOS//os/hal/include/serial_usb.h"
ARM GAS  C:\Users\41786\AppData\Local\Temp\ccAsm2AM.s 			page 24


 1255              		.file 56 "../../lib/e-puck2_main-processor/ChibiOS_ext/os/hal/include/../ports/STM32/STM32F4xx/dcm
 1256              		.file 57 "c:\\users\\41786\\desktop\\epfl\\microinfo\\eclipse_e-puck2\\tools\\gcc-arm-none-eabi-7-
 1257              		.file 58 "c:\\users\\41786\\desktop\\epfl\\microinfo\\eclipse_e-puck2\\tools\\gcc-arm-none-eabi-7-
 1258              		.file 59 "<built-in>"
 1259              		.file 60 "c:\\users\\41786\\desktop\\epfl\\microinfo\\eclipse_e-puck2\\tools\\gcc-arm-none-eabi-7-
 1260              		.file 61 "../../lib/e-puck2_main-processor/src/msgbus/messagebus.h"
 1261              		.file 62 "c:\\users\\41786\\desktop\\epfl\\microinfo\\eclipse_e-puck2\\tools\\gcc-arm-none-eabi-7-
 1262              		.file 63 "c:\\users\\41786\\desktop\\epfl\\microinfo\\eclipse_e-puck2\\tools\\gcc-arm-none-eabi-7-
 1263              		.file 64 "../../lib/e-puck2_main-processor/src/parameter/parameter.h"
 1264              		.file 65 "./main.h"
 1265              		.file 66 "../../lib/e-puck2_main-processor/src/usbcfg.h"
 1266              		.file 67 "c:\\users\\41786\\desktop\\epfl\\microinfo\\eclipse_e-puck2\\tools\\gcc-arm-none-eabi-7-
 1267              		.file 68 "./traitement_son.h"
 1268              		.file 69 "c:\\users\\41786\\desktop\\epfl\\microinfo\\eclipse_e-puck2\\tools\\gcc-arm-none-eabi-7-
 1269              		.file 70 "../../lib/e-puck2_main-processor/ChibiOS//os/ext/CMSIS/include/arm_math.h"
 1270              		.file 71 "../../lib/e-puck2_main-processor/ChibiOS//os/ext/CMSIS/include/arm_common_tables.h"
 1271              		.file 72 "../../lib/e-puck2_main-processor/ChibiOS//os/ext/CMSIS/include/arm_const_structs.h"