ARM GAS  C:\Users\guill\AppData\Local\Temp\ccISx2xN.s 			page 1


   1              		.cpu cortex-m4
   2              		.eabi_attribute 27, 1
   3              		.eabi_attribute 28, 1
   4              		.eabi_attribute 20, 1
   5              		.eabi_attribute 21, 1
   6              		.eabi_attribute 23, 3
   7              		.eabi_attribute 24, 1
   8              		.eabi_attribute 25, 1
   9              		.eabi_attribute 26, 1
  10              		.eabi_attribute 30, 2
  11              		.eabi_attribute 34, 1
  12              		.eabi_attribute 18, 4
  13              		.file	"traitement_capteur.c"
  14              		.text
  15              	.Ltext0:
  16              		.cfi_sections	.debug_frame
  17              		.section	.text.check_chemin,"ax",%progbits
  18              		.align	1
  19              		.p2align 4,,15
  20              		.global	check_chemin
  21              		.syntax unified
  22              		.thumb
  23              		.thumb_func
  24              		.fpu fpv4-sp-d16
  25              		.type	check_chemin, %function
  26              	check_chemin:
  27              	.LFB0:
  28              		.file 1 "traitement_capteur.c"
  29              		.loc 1 16 0
  30              		.cfi_startproc
  31              		@ args = 0, pretend = 0, frame = 8
  32              		@ frame_needed = 0, uses_anonymous_args = 0
  33 0000 00B5     		push	{lr}
  34              		.cfi_def_cfa_offset 4
  35              		.cfi_offset 14, -4
  36 0002 084B     		ldr	r3, .L6
  37              		.loc 1 17 0
  38 0004 0849     		ldr	r1, .L6+4
  39              		.loc 1 16 0
  40 0006 1A68     		ldr	r2, [r3]
  41              		.loc 1 17 0
  42 0008 8879     		ldrb	r0, [r1, #6]	@ zero_extendqisi2
  43              		.loc 1 16 0
  44 000a 83B0     		sub	sp, sp, #12
  45              		.cfi_def_cfa_offset 16
  46              		.loc 1 16 0
  47 000c 0192     		str	r2, [sp, #4]
  48              		.loc 1 18 0
  49 000e 019A     		ldr	r2, [sp, #4]
  50 0010 1B68     		ldr	r3, [r3]
  51 0012 9A42     		cmp	r2, r3
  52 0014 04D1     		bne	.L5
  53 0016 80F00100 		eor	r0, r0, #1
  54 001a 03B0     		add	sp, sp, #12
  55              		.cfi_remember_state
  56              		.cfi_def_cfa_offset 4
  57              		@ sp needed
ARM GAS  C:\Users\guill\AppData\Local\Temp\ccISx2xN.s 			page 2


  58 001c 5DF804FB 		ldr	pc, [sp], #4
  59              	.L5:
  60              		.cfi_restore_state
  61 0020 FFF7FEFF 		bl	__stack_chk_fail
  62              	.LVL0:
  63              	.L7:
  64              		.align	2
  65              	.L6:
  66 0024 00000000 		.word	__stack_chk_guard
  67 0028 00000000 		.word	.LANCHOR0
  68              		.cfi_endproc
  69              	.LFE0:
  70              		.size	check_chemin, .-check_chemin
  71              		.section	.text.get_obstacle_condition,"ax",%progbits
  72              		.align	1
  73              		.p2align 4,,15
  74              		.global	get_obstacle_condition
  75              		.syntax unified
  76              		.thumb
  77              		.thumb_func
  78              		.fpu fpv4-sp-d16
  79              		.type	get_obstacle_condition, %function
  80              	get_obstacle_condition:
  81              	.LFB1:
  82              		.loc 1 21 0
  83              		.cfi_startproc
  84              		@ args = 0, pretend = 0, frame = 8
  85              		@ frame_needed = 0, uses_anonymous_args = 0
  86              	.LVL1:
  87 0000 00B5     		push	{lr}
  88              		.cfi_def_cfa_offset 4
  89              		.cfi_offset 14, -4
  90 0002 074B     		ldr	r3, .L12
  91              		.loc 1 22 0
  92 0004 0749     		ldr	r1, .L12+4
  93              		.loc 1 21 0
  94 0006 1A68     		ldr	r2, [r3]
  95              		.loc 1 23 0
  96 0008 085C     		ldrb	r0, [r1, r0]	@ zero_extendqisi2
  97              	.LVL2:
  98              		.loc 1 21 0
  99 000a 83B0     		sub	sp, sp, #12
 100              		.cfi_def_cfa_offset 16
 101              		.loc 1 21 0
 102 000c 0192     		str	r2, [sp, #4]
 103              		.loc 1 23 0
 104 000e 019A     		ldr	r2, [sp, #4]
 105 0010 1B68     		ldr	r3, [r3]
 106 0012 9A42     		cmp	r2, r3
 107 0014 02D1     		bne	.L11
 108 0016 03B0     		add	sp, sp, #12
 109              		.cfi_remember_state
 110              		.cfi_def_cfa_offset 4
 111              		@ sp needed
 112 0018 5DF804FB 		ldr	pc, [sp], #4
 113              	.L11:
 114              		.cfi_restore_state
ARM GAS  C:\Users\guill\AppData\Local\Temp\ccISx2xN.s 			page 3


 115 001c FFF7FEFF 		bl	__stack_chk_fail
 116              	.LVL3:
 117              	.L13:
 118              		.align	2
 119              	.L12:
 120 0020 00000000 		.word	__stack_chk_guard
 121 0024 00000000 		.word	.LANCHOR0
 122              		.cfi_endproc
 123              	.LFE1:
 124              		.size	get_obstacle_condition, .-get_obstacle_condition
 125              		.section	.text.actualisation_capteurs,"ax",%progbits
 126              		.align	1
 127              		.p2align 4,,15
 128              		.global	actualisation_capteurs
 129              		.syntax unified
 130              		.thumb
 131              		.thumb_func
 132              		.fpu fpv4-sp-d16
 133              		.type	actualisation_capteurs, %function
 134              	actualisation_capteurs:
 135              	.LFB2:
 136              		.loc 1 27 0
 137              		.cfi_startproc
 138              		@ args = 0, pretend = 0, frame = 8
 139              		@ frame_needed = 0, uses_anonymous_args = 0
 140 0000 2DE9F041 		push	{r4, r5, r6, r7, r8, lr}
 141              		.cfi_def_cfa_offset 24
 142              		.cfi_offset 4, -24
 143              		.cfi_offset 5, -20
 144              		.cfi_offset 6, -16
 145              		.cfi_offset 7, -12
 146              		.cfi_offset 8, -8
 147              		.cfi_offset 14, -4
 148 0004 DFF84080 		ldr	r8, .L22+4
 149 0008 0E4F     		ldr	r7, .L22
 150 000a D8F80030 		ldr	r3, [r8]
 151 000e 82B0     		sub	sp, sp, #8
 152              		.cfi_def_cfa_offset 32
 153              	.LBB2:
 154              		.loc 1 30 0
 155 0010 0024     		movs	r4, #0
 156              	.LBE2:
 157              		.loc 1 27 0
 158 0012 0193     		str	r3, [sp, #4]
 159              	.LVL4:
 160              	.LBB3:
 161              		.loc 1 41 0
 162 0014 2646     		mov	r6, r4
 163              		.loc 1 36 0
 164 0016 0125     		movs	r5, #1
 165              	.LVL5:
 166              	.L17:
 167              		.loc 1 33 0
 168 0018 2046     		mov	r0, r4
 169 001a FFF7FEFF 		bl	get_calibrated_prox
 170              	.LVL6:
 171              		.loc 1 36 0
ARM GAS  C:\Users\guill\AppData\Local\Temp\ccISx2xN.s 			page 4


 172 001e 9628     		cmp	r0, #150
 173 0020 34BF     		ite	cc
 174 0022 3346     		movcc	r3, r6
 175 0024 2B46     		movcs	r3, r5
 176 0026 3B55     		strb	r3, [r7, r4]
 177              		.loc 1 30 0
 178 0028 0134     		adds	r4, r4, #1
 179              	.LVL7:
 180 002a 082C     		cmp	r4, #8
 181 002c F4D1     		bne	.L17
 182              	.LBE3:
 183              		.loc 1 44 0
 184 002e 019A     		ldr	r2, [sp, #4]
 185 0030 D8F80030 		ldr	r3, [r8]
 186 0034 9A42     		cmp	r2, r3
 187 0036 02D1     		bne	.L21
 188 0038 02B0     		add	sp, sp, #8
 189              		.cfi_remember_state
 190              		.cfi_def_cfa_offset 24
 191              		@ sp needed
 192 003a BDE8F081 		pop	{r4, r5, r6, r7, r8, pc}
 193              	.LVL8:
 194              	.L21:
 195              		.cfi_restore_state
 196 003e FFF7FEFF 		bl	__stack_chk_fail
 197              	.LVL9:
 198              	.L23:
 199 0042 00BF     		.align	2
 200              	.L22:
 201 0044 00000000 		.word	.LANCHOR0
 202 0048 00000000 		.word	__stack_chk_guard
 203              		.cfi_endproc
 204              	.LFE2:
 205              		.size	actualisation_capteurs, .-actualisation_capteurs
 206              		.section	.bss.obstacle,"aw",%nobits
 207              		.align	2
 208              		.set	.LANCHOR0,. + 0
 209              		.type	obstacle, %object
 210              		.size	obstacle, 8
 211              	obstacle:
 212 0000 00000000 		.space	8
 212      00000000 
 213              		.text
 214              	.Letext0:
 215              		.file 2 "c:\\microinfo\\eclipse_e-puck2\\tools\\gcc-arm-none-eabi-7-2017-q4-major-win32\\arm-none-
 216              		.file 3 "c:\\microinfo\\eclipse_e-puck2\\tools\\gcc-arm-none-eabi-7-2017-q4-major-win32\\arm-none-
 217              		.file 4 "traitement_capteur.h"
 218              		.file 5 "../../lib/e-puck2_main-processor/src/sensors/proximity.h"